; Listing generated by Microsoft (R) Optimizing Compiler Version 19.38.33133.0 

include listing.inc

INCLUDELIB OLDNAMES

PUBLIC	??_C@_0BC@EOODALEL@Unknown?5exception@		; `string'
PUBLIC	??_C@_0BF@KINCDENJ@bad?5array?5new?5length@	; `string'
PUBLIC	??_C@_0BA@JFNIOLAK@string?5too?5long@		; `string'
PUBLIC	??_C@_02LMMGGCAJ@?3?5@				; `string'
PUBLIC	??_C@_08EPJLHIJG@bad?5cast@			; `string'
PUBLIC	??_C@_0BC@JPGOJEBA@MinHook?5error?5in?5@	; `string'
PUBLIC	??_C@_1BE@ELICABCK@?$AA?$DM?$AAu?$AAn?$AAk?$AAn?$AAo?$AAw?$AAn?$AA?$DO@ ; `string'
PUBLIC	??_C@_1GC@CGGHBNON@?$AAH?$AAo?$AAo?$AAk?$AAi?$AAn?$AAg?$AA?5?$AAt?$AAo?$AA?3?$AA?5?$AAP?$AAr?$AAo@ ; `string'
PUBLIC	??_C@_0N@DJEDGFBP@?5Protection?$DN@		; `string'
PUBLIC	??_C@_0BB@CPGFOPLP@?5AllocationType?$DN@	; `string'
PUBLIC	??_C@_06JDGAHHPF@?5Size?$DN@			; `string'
PUBLIC	??_C@_0BN@PKEFEJNJ@HookedVirtualAlloc?3?5Address?$DN@ ; `string'
PUBLIC	??_C@_0BP@FPGHOMD@HookedVirtualAllocEx?3?5Address?$DN@ ; `string'
PUBLIC	??_C@_0DN@NLABAAOK@HookedWriteProcessMemory?3?5lpNum@ ; `string'
PUBLIC	??_C@_0P@HIDOCKMF@?5BytesWritten?$DN@		; `string'
PUBLIC	??_C@_0CD@JLIEEAJN@HookedWriteProcessMemory?3?5Addre@ ; `string'
PUBLIC	??_C@_01CLKCMJKC@?5@				; `string'
PUBLIC	??_C@_08CCCNBELM@?5?5Data?3?5@			; `string'
PUBLIC	??_C@_0CI@NGGHBEGF@Exception?5in?5HookedWriteProcess@ ; `string'
PUBLIC	??_C@_0L@BOGLAAGC@?5ThreadId?$DN@		; `string'
PUBLIC	??_C@_0BA@NOIODOAP@?5ProcessHandle?$DN@		; `string'
PUBLIC	??_C@_0CD@EHPPGPBO@HookedCreateRemoteThread?3?5Addre@ ; `string'
PUBLIC	??_C@_0P@NKNGOLPE@?5ModuleHandle?$DN@		; `string'
PUBLIC	??_C@_08GHGKDLHF@?5IdHook?$DN@			; `string'
PUBLIC	??_C@_0CC@JHPHOKOG@HookedSetWindowsHookExA?3?5Addres@ ; `string'
PUBLIC	??_C@_0CC@HENCKCPK@HookedSetWindowsHookExW?3?5Addres@ ; `string'
PUBLIC	??_C@_0BN@OAEOPBPM@HookedCreateThread?3?5Address?$DN@ ; `string'
PUBLIC	??_C@_0BA@OBLHBFHG@?5InheritHandle?$DN@		; `string'
PUBLIC	??_C@_0BA@KLEGACPH@?5DesiredAccess?$DN@		; `string'
PUBLIC	??_C@_0BL@LOLKEBDJ@HookedOpenThread?3?5Address?$DN@ ; `string'
PUBLIC	??_C@_0O@CLMNDHMN@?5LibraryName?$DN@		; `string'
PUBLIC	??_C@_0BN@GADKGODI@HookedLoadLibraryA?3?5Address?$DN@ ; `string'
PUBLIC	??_C@_1DK@JAKNBKEM@?$AAH?$AAo?$AAo?$AAk?$AAe?$AAd?$AAL?$AAo?$AAa?$AAd?$AAL?$AAi?$AAb?$AAr?$AAa@ ; `string'
PUBLIC	??_C@_1BM@NOKBODGN@?$AA?5?$AAs?$AAe?$AAc?$AAo?$AAn?$AAd?$AA?$CI?$AAs?$AA?$CJ?$AA?4?$AA?4?$AA?4@ ; `string'
PUBLIC	??_C@_1DA@CEOBPLLB@?$AA?8?$AA?5?$AAp?$AAr?$AAo?$AAc?$AAe?$AAs?$AAs?$AA?4?$AA?5?$AAR?$AAe?$AAt?$AAr@ ; `string'
PUBLIC	??_C@_1CK@LHBGCACL@?$AAU?$AAn?$AAa?$AAb?$AAl?$AAe?$AA?5?$AAt?$AAo?$AA?5?$AAf?$AAi?$AAn?$AAd?$AA?5@ ; `string'
PUBLIC	??_C@_0DA@HKNCCAHG@Failed?5to?5allocate?5memory?5in?5th@ ; `string'
PUBLIC	??_C@_0CL@PHPNBKHO@Failed?5to?5write?5code?5to?5the?5tar@ ; `string'
PUBLIC	??_C@_0DH@OOCOEFIK@Failed?5to?5create?5a?5remote?5threa@ ; `string'
PUBLIC	??_C@_0CF@EMFABHB@Failed?5to?5wait?5for?5the?5remote?5t@ ; `string'
PUBLIC	??_C@_0BP@DOPBJDFB@MinHook?5initialization?5failed?4@ ; `string'
PUBLIC	??_C@_1BE@GPEDIDBI@?$AAj?$AAa?$AAv?$AAa?$AAw?$AA?4?$AAe?$AAx?$AAe@ ; `string'
PUBLIC	??_C@_19DOIKHDLM@?$AA?$CJ?$AA?4?$AA?4?$AA?4@	; `string'
PUBLIC	??_C@_1DG@GOGLACD@?$AAH?$AAo?$AAo?$AAk?$AAi?$AAn?$AAg?$AA?5?$AA?8?$AAj?$AAa?$AAv?$AAa?$AAw?$AA?4@ ; `string'
PUBLIC	??_C@_1IA@JEPLEHFK@?$AAF?$AAa?$AAi?$AAl?$AAe?$AAd?$AA?5?$AAt?$AAo?$AA?5?$AAf?$AAi?$AAn?$AAd?$AA?5@ ; `string'
PUBLIC	??_C@_1FK@LDHBEBHF@?$AAF?$AAa?$AAi?$AAl?$AAe?$AAd?$AA?5?$AAt?$AAo?$AA?5?$AAo?$AAp?$AAe?$AAn?$AA?5@ ; `string'
PUBLIC	??_C@_1BK@MGMFAEKH@?$AAk?$AAe?$AAr?$AAn?$AAe?$AAl?$AA3?$AA2?$AA?4?$AAd?$AAl?$AAl@ ; `string'
PUBLIC	??_C@_0DE@ELACACCO@Failed?5to?5get?5handle?5for?5kernel@ ; `string'
PUBLIC	??_C@_1DO@JMLHEEH@?$AAC?$AA?3?$AA?2?$AAW?$AAi?$AAn?$AAd?$AAo?$AAw?$AAs?$AA?2?$AAS?$AAy?$AAs?$AAt@ ; `string'
PUBLIC	??_C@_0DC@JGNCJOMI@Failed?5to?5get?5handle?5for?5user32@ ; `string'
PUBLIC	??_C@_0N@LLPNHGPB@VirtualAlloc@			; `string'
PUBLIC	??_C@_0P@CFHGADNN@VirtualAllocEx@		; `string'
PUBLIC	??_C@_0BD@PBGEEFCK@WriteProcessMemory@		; `string'
PUBLIC	??_C@_0BD@DALFIAJK@CreateRemoteThread@		; `string'
PUBLIC	??_C@_0N@OGAMMJPI@CreateThread@			; `string'
PUBLIC	??_C@_0L@EHKLHJ@OpenThread@			; `string'
PUBLIC	??_C@_0N@LOMLCOFC@LoadLibraryA@			; `string'
PUBLIC	??_C@_0N@KCFDJLIF@LoadLibraryW@			; `string'
PUBLIC	??_C@_0BC@BDBJGNEH@SetWindowsHookExA@		; `string'
PUBLIC	??_C@_0BC@PIBNIJA@SetWindowsHookExW@		; `string'
PUBLIC	??_C@_0EN@LNAMCKEC@Failed?5to?5get?5function?5address?5@ ; `string'
PUBLIC	??_C@_1BG@OILDLIOJ@?$AAu?$AAs?$AAe?$AAr?$AA3?$AA2?$AA?4?$AAd?$AAl?$AAl@ ; `string'
PUBLIC	??_C@_0BH@PFNAFLAH@Failed?5to?5enable?5hooks@	; `string'
PUBLIC	??_C@_0N@LPFKKEBD@?3AM?3am?3PM?3pm@		; `string'
PUBLIC	??_C@_1BK@MHIKGOKE@?$AA?3?$AAA?$AAM?$AA?3?$AAa?$AAm?$AA?3?$AAP?$AAM?$AA?3?$AAp?$AAm@ ; `string'
PUBLIC	??_R3?$basic_istream@DU?$char_traits@D@std@@@std@@8 ; std::basic_istream<char,std::char_traits<char> >::`RTTI Class Hierarchy Descriptor'
PUBLIC	??_R3?$basic_iostream@DU?$char_traits@D@std@@@std@@8 ; std::basic_iostream<char,std::char_traits<char> >::`RTTI Class Hierarchy Descriptor'
PUBLIC	??_R0?AV?$basic_stringstream@DU?$char_traits@D@std@@V?$allocator@D@2@@std@@@8 ; std::basic_stringstream<char,std::char_traits<char>,std::allocator<char> > `RTTI Type Descriptor'
PUBLIC	?originalVirtualAlloc@@3P6APEAXPEAX_KKK@ZEA	; originalVirtualAlloc
PUBLIC	??_R4exception@std@@6B@				; std::exception::`RTTI Complete Object Locator'
PUBLIC	??_R2bad_array_new_length@std@@8		; std::bad_array_new_length::`RTTI Base Class Array'
PUBLIC	?originalCreateRemoteThread@@3P6APEAXPEAXPEAU_SECURITY_ATTRIBUTES@@_KP6AK0@Z0KPEAK@ZEA ; originalCreateRemoteThread
PUBLIC	??_R0?AVbad_alloc@std@@@8			; std::bad_alloc `RTTI Type Descriptor'
PUBLIC	??_R1A@?0A@EA@?$basic_istream@DU?$char_traits@D@std@@@std@@8 ; std::basic_istream<char,std::char_traits<char> >::`RTTI Base Class Descriptor at (0,-1,0,64)'
PUBLIC	??_R1A@?0A@EA@bad_cast@std@@8			; std::bad_cast::`RTTI Base Class Descriptor at (0,-1,0,64)'
PUBLIC	??_R0?AV?$basic_stringbuf@DU?$char_traits@D@std@@V?$allocator@D@2@@std@@@8 ; std::basic_stringbuf<char,std::char_traits<char>,std::allocator<char> > `RTTI Type Descriptor'
PUBLIC	??_R2bad_alloc@std@@8				; std::bad_alloc::`RTTI Base Class Array'
PUBLIC	??_R0?AVios_base@std@@@8			; std::ios_base `RTTI Type Descriptor'
PUBLIC	??_R2?$basic_stringbuf@DU?$char_traits@D@std@@V?$allocator@D@2@@std@@8 ; std::basic_stringbuf<char,std::char_traits<char>,std::allocator<char> >::`RTTI Base Class Array'
PUBLIC	_CTA3?AVbad_array_new_length@std@@
PUBLIC	??_7bad_array_new_length@std@@6B@		; std::bad_array_new_length::`vftable'
PUBLIC	??_R0?AV?$basic_iostream@DU?$char_traits@D@std@@@std@@@8 ; std::basic_iostream<char,std::char_traits<char> > `RTTI Type Descriptor'
PUBLIC	??_R17A@3EA@?$_Iosb@H@std@@8			; std::_Iosb<int>::`RTTI Base Class Descriptor at (8,0,4,64)'
PUBLIC	??_R1A@?0A@EA@?$basic_stringstream@DU?$char_traits@D@std@@V?$allocator@D@2@@std@@8 ; std::basic_stringstream<char,std::char_traits<char>,std::allocator<char> >::`RTTI Base Class Descriptor at (0,-1,0,64)'
PUBLIC	??_R1A@?0A@EA@exception@std@@8			; std::exception::`RTTI Base Class Descriptor at (0,-1,0,64)'
PUBLIC	??_R1A@?0A@EA@?$basic_streambuf@DU?$char_traits@D@std@@@std@@8 ; std::basic_streambuf<char,std::char_traits<char> >::`RTTI Base Class Descriptor at (0,-1,0,64)'
PUBLIC	??_R1A@?0A@EA@bad_alloc@std@@8			; std::bad_alloc::`RTTI Base Class Descriptor at (0,-1,0,64)'
PUBLIC	??_8?$basic_stringstream@DU?$char_traits@D@std@@V?$allocator@D@2@@std@@7B?$basic_ostream@DU?$char_traits@D@std@@@1@@ ; std::basic_stringstream<char,std::char_traits<char>,std::allocator<char> >::`vbtable'
PUBLIC	??_R2?$basic_istream@DU?$char_traits@D@std@@@std@@8 ; std::basic_istream<char,std::char_traits<char> >::`RTTI Base Class Array'
PUBLIC	??_R0?AV?$_Iosb@H@std@@@8			; std::_Iosb<int> `RTTI Type Descriptor'
PUBLIC	_CTA2?AVbad_cast@std@@
PUBLIC	?originalLoadLibraryW@@3P6APEAUHINSTANCE__@@PEB_W@ZEA ; originalLoadLibraryW
PUBLIC	?originalSetWindowsHookExW@@3P6APEAUHHOOK__@@HP6A_JH_K_J@ZPEAUHINSTANCE__@@K@ZEA ; originalSetWindowsHookExW
PUBLIC	??_7bad_alloc@std@@6B@				; std::bad_alloc::`vftable'
PUBLIC	??_R0?AV?$basic_streambuf@DU?$char_traits@D@std@@@std@@@8 ; std::basic_streambuf<char,std::char_traits<char> > `RTTI Type Descriptor'
PUBLIC	??_R3?$basic_stringbuf@DU?$char_traits@D@std@@V?$allocator@D@2@@std@@8 ; std::basic_stringbuf<char,std::char_traits<char>,std::allocator<char> >::`RTTI Class Hierarchy Descriptor'
PUBLIC	??_R2bad_cast@std@@8				; std::bad_cast::`RTTI Base Class Array'
PUBLIC	??_R2exception@std@@8				; std::exception::`RTTI Base Class Array'
PUBLIC	??_R2?$basic_ostream@DU?$char_traits@D@std@@@std@@8 ; std::basic_ostream<char,std::char_traits<char> >::`RTTI Base Class Array'
PUBLIC	??_7bad_cast@std@@6B@				; std::bad_cast::`vftable'
PUBLIC	?originalOpenThread@@3P6APEAXKHK@ZEA		; originalOpenThread
PUBLIC	??_R3?$basic_ios@DU?$char_traits@D@std@@@std@@8	; std::basic_ios<char,std::char_traits<char> >::`RTTI Class Hierarchy Descriptor'
PUBLIC	?targetPID@@3KA					; targetPID
PUBLIC	??_R0?AVbad_cast@std@@@8			; std::bad_cast `RTTI Type Descriptor'
PUBLIC	_TI2?AVbad_cast@std@@
PUBLIC	??_7?$basic_stringbuf@DU?$char_traits@D@std@@V?$allocator@D@2@@std@@6B@ ; std::basic_stringbuf<char,std::char_traits<char>,std::allocator<char> >::`vftable'
PUBLIC	?originalSetWindowsHookExA@@3P6APEAUHHOOK__@@HP6A_JH_K_J@ZPEAUHINSTANCE__@@K@ZEA ; originalSetWindowsHookExA
PUBLIC	??_7exception@std@@6B@				; std::exception::`vftable'
PUBLIC	??_R1BA@?0A@EA@?$basic_ostream@DU?$char_traits@D@std@@@std@@8 ; std::basic_ostream<char,std::char_traits<char> >::`RTTI Base Class Descriptor at (16,-1,0,64)'
PUBLIC	??_R0?AV?$basic_istream@DU?$char_traits@D@std@@@std@@@8 ; std::basic_istream<char,std::char_traits<char> > `RTTI Type Descriptor'
PUBLIC	??_R1A@?0A@EA@ios_base@std@@8			; std::ios_base::`RTTI Base Class Descriptor at (0,-1,0,64)'
PUBLIC	??_R3exception@std@@8				; std::exception::`RTTI Class Hierarchy Descriptor'
PUBLIC	_CT??_R0?AVbad_array_new_length@std@@@8??0bad_array_new_length@std@@QEAA@AEBV01@@Z24
PUBLIC	??_R1A@?0A@EA@?$basic_ostream@DU?$char_traits@D@std@@@std@@8 ; std::basic_ostream<char,std::char_traits<char> >::`RTTI Base Class Descriptor at (0,-1,0,64)'
PUBLIC	??_R0?AV?$basic_ios@DU?$char_traits@D@std@@@std@@@8 ; std::basic_ios<char,std::char_traits<char> > `RTTI Type Descriptor'
PUBLIC	??_7?$basic_stringstream@DU?$char_traits@D@std@@V?$allocator@D@2@@std@@6B@ ; std::basic_stringstream<char,std::char_traits<char>,std::allocator<char> >::`vftable'
PUBLIC	??_R2?$basic_streambuf@DU?$char_traits@D@std@@@std@@8 ; std::basic_streambuf<char,std::char_traits<char> >::`RTTI Base Class Array'
PUBLIC	??_R1A@?0A@EA@?$_Iosb@H@std@@8			; std::_Iosb<int>::`RTTI Base Class Descriptor at (0,-1,0,64)'
PUBLIC	?originalVirtualAllocEx@@3P6APEAXPEAX0_KKK@ZEA	; originalVirtualAllocEx
PUBLIC	??_R1A@?0A@EA@?$basic_stringbuf@DU?$char_traits@D@std@@V?$allocator@D@2@@std@@8 ; std::basic_stringbuf<char,std::char_traits<char>,std::allocator<char> >::`RTTI Base Class Descriptor at (0,-1,0,64)'
PUBLIC	?_Fake_alloc@std@@3U_Fake_allocator@1@B		; std::_Fake_alloc
PUBLIC	?greater@strong_ordering@std@@2U12@B		; std::strong_ordering::greater
PUBLIC	?equal@strong_ordering@std@@2U12@B		; std::strong_ordering::equal
PUBLIC	?greater@partial_ordering@std@@2U12@B		; std::partial_ordering::greater
PUBLIC	?unordered@partial_ordering@std@@2U12@B		; std::partial_ordering::unordered
PUBLIC	?less@strong_ordering@std@@2U12@B		; std::strong_ordering::less
PUBLIC	?_Psave@?$_Facetptr@V?$ctype@_W@std@@@std@@2PEBVfacet@locale@2@EB ; std::_Facetptr<std::ctype<wchar_t> >::_Psave
PUBLIC	?equivalent@partial_ordering@std@@2U12@B	; std::partial_ordering::equivalent
PUBLIC	?less@partial_ordering@std@@2U12@B		; std::partial_ordering::less
PUBLIC	??_R2?$basic_iostream@DU?$char_traits@D@std@@@std@@8 ; std::basic_iostream<char,std::char_traits<char> >::`RTTI Base Class Array'
PUBLIC	??_R3bad_cast@std@@8				; std::bad_cast::`RTTI Class Hierarchy Descriptor'
PUBLIC	??_R4bad_alloc@std@@6B@				; std::bad_alloc::`RTTI Complete Object Locator'
PUBLIC	??_R2?$basic_stringstream@DU?$char_traits@D@std@@V?$allocator@D@2@@std@@8 ; std::basic_stringstream<char,std::char_traits<char>,std::allocator<char> >::`RTTI Base Class Array'
PUBLIC	??_R4bad_cast@std@@6B@				; std::bad_cast::`RTTI Complete Object Locator'
PUBLIC	?originalLoadLibraryA@@3P6APEAUHINSTANCE__@@PEBD@ZEA ; originalLoadLibraryA
PUBLIC	_CT??_R0?AVbad_cast@std@@@8??0bad_cast@std@@QEAA@AEBV01@@Z24
PUBLIC	??_R3bad_array_new_length@std@@8		; std::bad_array_new_length::`RTTI Class Hierarchy Descriptor'
PUBLIC	_CT??_R0?AVbad_alloc@std@@@8??0bad_alloc@std@@QEAA@AEBV01@@Z24
PUBLIC	??_R4?$basic_stringbuf@DU?$char_traits@D@std@@V?$allocator@D@2@@std@@6B@ ; std::basic_stringbuf<char,std::char_traits<char>,std::allocator<char> >::`RTTI Complete Object Locator'
PUBLIC	??_R4?$basic_stringstream@DU?$char_traits@D@std@@V?$allocator@D@2@@std@@6B@ ; std::basic_stringstream<char,std::char_traits<char>,std::allocator<char> >::`RTTI Complete Object Locator'
PUBLIC	??_R3bad_alloc@std@@8				; std::bad_alloc::`RTTI Class Hierarchy Descriptor'
PUBLIC	?originalCreateThread@@3P6APEAXPEAU_SECURITY_ATTRIBUTES@@_KP6AKPEAX@Z2KPEAK@ZEA ; originalCreateThread
PUBLIC	??_R1A@A@3FA@?$basic_ios@DU?$char_traits@D@std@@@std@@8 ; std::basic_ios<char,std::char_traits<char> >::`RTTI Base Class Descriptor at (0,0,4,80)'
PUBLIC	??_R4bad_array_new_length@std@@6B@		; std::bad_array_new_length::`RTTI Complete Object Locator'
PUBLIC	??_R0?AV?$basic_ostream@DU?$char_traits@D@std@@@std@@@8 ; std::basic_ostream<char,std::char_traits<char> > `RTTI Type Descriptor'
PUBLIC	??_R2ios_base@std@@8				; std::ios_base::`RTTI Base Class Array'
PUBLIC	??_R3?$basic_ostream@DU?$char_traits@D@std@@@std@@8 ; std::basic_ostream<char,std::char_traits<char> >::`RTTI Class Hierarchy Descriptor'
PUBLIC	??_R1A@?0A@EA@?$basic_iostream@DU?$char_traits@D@std@@@std@@8 ; std::basic_iostream<char,std::char_traits<char> >::`RTTI Base Class Descriptor at (0,-1,0,64)'
PUBLIC	??_8?$basic_stringstream@DU?$char_traits@D@std@@V?$allocator@D@2@@std@@7B?$basic_istream@DU?$char_traits@D@std@@@1@@ ; std::basic_stringstream<char,std::char_traits<char>,std::allocator<char> >::`vbtable'
PUBLIC	??_R3ios_base@std@@8				; std::ios_base::`RTTI Class Hierarchy Descriptor'
PUBLIC	??_R3?$basic_streambuf@DU?$char_traits@D@std@@@std@@8 ; std::basic_streambuf<char,std::char_traits<char> >::`RTTI Class Hierarchy Descriptor'
PUBLIC	??_R1A@?0A@EA@bad_array_new_length@std@@8	; std::bad_array_new_length::`RTTI Base Class Descriptor at (0,-1,0,64)'
PUBLIC	??_R3?$basic_stringstream@DU?$char_traits@D@std@@V?$allocator@D@2@@std@@8 ; std::basic_stringstream<char,std::char_traits<char>,std::allocator<char> >::`RTTI Class Hierarchy Descriptor'
PUBLIC	??_R2?$_Iosb@H@std@@8				; std::_Iosb<int>::`RTTI Base Class Array'
PUBLIC	_CT??_R0?AVexception@std@@@8??0exception@std@@QEAA@AEBV01@@Z24
PUBLIC	??_R1A@A@3EA@ios_base@std@@8			; std::ios_base::`RTTI Base Class Descriptor at (0,0,4,64)'
PUBLIC	??_R1A@?0A@EA@?$basic_ios@DU?$char_traits@D@std@@@std@@8 ; std::basic_ios<char,std::char_traits<char> >::`RTTI Base Class Descriptor at (0,-1,0,64)'
PUBLIC	_TI3?AVbad_array_new_length@std@@
PUBLIC	?originalWriteProcessMemory@@3P6AHPEAX0PEBX_KPEA_K@ZEA ; originalWriteProcessMemory
PUBLIC	??_R3?$_Iosb@H@std@@8				; std::_Iosb<int>::`RTTI Class Hierarchy Descriptor'
PUBLIC	??_R0?AVexception@std@@@8			; std::exception `RTTI Type Descriptor'
PUBLIC	??_R17?0A@EA@?$_Iosb@H@std@@8			; std::_Iosb<int>::`RTTI Base Class Descriptor at (8,-1,0,64)'
PUBLIC	??_R2?$basic_ios@DU?$char_traits@D@std@@@std@@8	; std::basic_ios<char,std::char_traits<char> >::`RTTI Base Class Array'
PUBLIC	??_R0?AVbad_array_new_length@std@@@8		; std::bad_array_new_length `RTTI Type Descriptor'
EXTRN	__imp_?_Getcvt@_Locinfo@std@@QEBA?AU_Cvtvec@@XZ:PROC
EXTRN	__imp_?_Getdays@_Locinfo@std@@QEBAPEBDXZ:PROC
EXTRN	__imp_?_Getmonths@_Locinfo@std@@QEBAPEBDXZ:PROC
EXTRN	__imp_?_W_Getdays@_Locinfo@std@@QEBAPEBGXZ:PROC
EXTRN	__imp_?_W_Getmonths@_Locinfo@std@@QEBAPEBGXZ:PROC
EXTRN	__imp_??Bid@locale@std@@QEAA_KXZ:PROC
EXTRN	__imp_?widen@?$ctype@_W@std@@QEBA_WD@Z:PROC
EXTRN	__imp_?_Getcat@?$ctype@_W@std@@SA_KPEAPEBVfacet@locale@2@PEBV42@@Z:PROC
EXTRN	__imp_?good@ios_base@std@@QEBA_NXZ:PROC
EXTRN	__imp_?flags@ios_base@std@@QEBAHXZ:PROC
EXTRN	__imp_?setf@ios_base@std@@QEAAHHH@Z:PROC
EXTRN	__imp_?width@ios_base@std@@QEBA_JXZ:PROC
EXTRN	__imp_?width@ios_base@std@@QEAA_J_J@Z:PROC
EXTRN	__imp_?getloc@ios_base@std@@QEBA?AVlocale@2@XZ:PROC
EXTRN	__imp_??1?$basic_iostream@DU?$char_traits@D@std@@@std@@UEAA@XZ:PROC
EXTRN	__imp_??6?$basic_ostream@_WU?$char_traits@_W@std@@@std@@QEAAAEAV01@PEBX@Z:PROC
EXTRN	__imp_??6?$basic_ostream@_WU?$char_traits@_W@std@@@std@@QEAAAEAV01@K@Z:PROC
EXTRN	__imp_??6?$basic_ostream@_WU?$char_traits@_W@std@@@std@@QEAAAEAV01@H@Z:PROC
EXTRN	__imp_??6?$basic_ostream@_WU?$char_traits@_W@std@@@std@@QEAAAEAV01@P6AAEAV01@AEAV01@@Z@Z:PROC
EXTRN	__imp_??6?$basic_ostream@DU?$char_traits@D@std@@@std@@QEAAAEAV01@PEBX@Z:PROC
EXTRN	__imp_??6?$basic_ostream@DU?$char_traits@D@std@@@std@@QEAAAEAV01@_K@Z:PROC
EXTRN	__imp_??6?$basic_ostream@DU?$char_traits@D@std@@@std@@QEAAAEAV01@K@Z:PROC
EXTRN	__imp_??6?$basic_ostream@DU?$char_traits@D@std@@@std@@QEAAAEAV01@H@Z:PROC
EXTRN	__imp_??6?$basic_ostream@DU?$char_traits@D@std@@@std@@QEAAAEAV01@P6AAEAVios_base@1@AEAV21@@Z@Z:PROC
EXTRN	__imp_??6?$basic_ostream@DU?$char_traits@D@std@@@std@@QEAAAEAV01@P6AAEAV01@AEAV01@@Z@Z:PROC
EXTRN	__imp_??1?$basic_ios@DU?$char_traits@D@std@@@std@@UEAA@XZ:PROC
EXTRN	?imbue@?$basic_streambuf@DU?$char_traits@D@std@@@std@@MEAAXAEBVlocale@2@@Z:PROC ; std::basic_streambuf<char,std::char_traits<char> >::imbue
EXTRN	__imp_?imbue@?$basic_streambuf@DU?$char_traits@D@std@@@std@@MEAAXAEBVlocale@2@@Z:PROC
EXTRN	?sync@?$basic_streambuf@DU?$char_traits@D@std@@@std@@MEAAHXZ:PROC ; std::basic_streambuf<char,std::char_traits<char> >::sync
EXTRN	__imp_?sync@?$basic_streambuf@DU?$char_traits@D@std@@@std@@MEAAHXZ:PROC
EXTRN	?setbuf@?$basic_streambuf@DU?$char_traits@D@std@@@std@@MEAAPEAV12@PEAD_J@Z:PROC ; std::basic_streambuf<char,std::char_traits<char> >::setbuf
EXTRN	__imp_?setbuf@?$basic_streambuf@DU?$char_traits@D@std@@@std@@MEAAPEAV12@PEAD_J@Z:PROC
EXTRN	?xsputn@?$basic_streambuf@DU?$char_traits@D@std@@@std@@MEAA_JPEBD_J@Z:PROC ; std::basic_streambuf<char,std::char_traits<char> >::xsputn
EXTRN	__imp_?xsputn@?$basic_streambuf@DU?$char_traits@D@std@@@std@@MEAA_JPEBD_J@Z:PROC
EXTRN	?xsgetn@?$basic_streambuf@DU?$char_traits@D@std@@@std@@MEAA_JPEAD_J@Z:PROC ; std::basic_streambuf<char,std::char_traits<char> >::xsgetn
EXTRN	__imp_?xsgetn@?$basic_streambuf@DU?$char_traits@D@std@@@std@@MEAA_JPEAD_J@Z:PROC
EXTRN	?uflow@?$basic_streambuf@DU?$char_traits@D@std@@@std@@MEAAHXZ:PROC ; std::basic_streambuf<char,std::char_traits<char> >::uflow
EXTRN	__imp_?uflow@?$basic_streambuf@DU?$char_traits@D@std@@@std@@MEAAHXZ:PROC
EXTRN	?showmanyc@?$basic_streambuf@DU?$char_traits@D@std@@@std@@MEAA_JXZ:PROC ; std::basic_streambuf<char,std::char_traits<char> >::showmanyc
EXTRN	__imp_?showmanyc@?$basic_streambuf@DU?$char_traits@D@std@@@std@@MEAA_JXZ:PROC
EXTRN	?_Unlock@?$basic_streambuf@DU?$char_traits@D@std@@@std@@UEAAXXZ:PROC ; std::basic_streambuf<char,std::char_traits<char> >::_Unlock
EXTRN	__imp_?_Unlock@?$basic_streambuf@DU?$char_traits@D@std@@@std@@UEAAXXZ:PROC
EXTRN	?_Lock@?$basic_streambuf@DU?$char_traits@D@std@@@std@@UEAAXXZ:PROC ; std::basic_streambuf<char,std::char_traits<char> >::_Lock
EXTRN	__imp_?_Lock@?$basic_streambuf@DU?$char_traits@D@std@@@std@@UEAAXXZ:PROC
EXTRN	__imp_??1?$basic_streambuf@DU?$char_traits@D@std@@@std@@UEAA@XZ:PROC
EXTRN	__imp_??0?$basic_iostream@DU?$char_traits@D@std@@@std@@QEAA@PEAV?$basic_streambuf@DU?$char_traits@D@std@@@1@@Z:PROC
EXTRN	__imp_?fill@?$basic_ios@_WU?$char_traits@_W@std@@@std@@QEBA_WXZ:PROC
EXTRN	__imp_?rdbuf@?$basic_ios@_WU?$char_traits@_W@std@@@std@@QEBAPEAV?$basic_streambuf@_WU?$char_traits@_W@std@@@2@XZ:PROC
EXTRN	__imp_?setstate@?$basic_ios@_WU?$char_traits@_W@std@@@std@@QEAAXH_N@Z:PROC
EXTRN	__imp_??0?$basic_ios@DU?$char_traits@D@std@@@std@@IEAA@XZ:PROC
EXTRN	__imp_?fill@?$basic_ios@DU?$char_traits@D@std@@@std@@QEBADXZ:PROC
EXTRN	__imp_?rdbuf@?$basic_ios@DU?$char_traits@D@std@@@std@@QEBAPEAV?$basic_streambuf@DU?$char_traits@D@std@@@2@XZ:PROC
EXTRN	__imp_?setstate@?$basic_ios@DU?$char_traits@D@std@@@std@@QEAAXH_N@Z:PROC
EXTRN	__imp_?_Pninc@?$basic_streambuf@DU?$char_traits@D@std@@@std@@IEAAPEADXZ:PROC
EXTRN	__imp_?setp@?$basic_streambuf@DU?$char_traits@D@std@@@std@@IEAAXPEAD00@Z:PROC
EXTRN	__imp_?epptr@?$basic_streambuf@DU?$char_traits@D@std@@@std@@IEBAPEADXZ:PROC
EXTRN	__imp_?setg@?$basic_streambuf@DU?$char_traits@D@std@@@std@@IEAAXPEAD00@Z:PROC
EXTRN	__imp_?gbump@?$basic_streambuf@DU?$char_traits@D@std@@@std@@IEAAXH@Z:PROC
EXTRN	__imp_?egptr@?$basic_streambuf@DU?$char_traits@D@std@@@std@@IEBAPEADXZ:PROC
EXTRN	__imp_?pptr@?$basic_streambuf@DU?$char_traits@D@std@@@std@@IEBAPEADXZ:PROC
EXTRN	__imp_?gptr@?$basic_streambuf@DU?$char_traits@D@std@@@std@@IEBAPEADXZ:PROC
EXTRN	__imp_?eback@?$basic_streambuf@DU?$char_traits@D@std@@@std@@IEBAPEADXZ:PROC
EXTRN	__imp_?flush@?$basic_ostream@_WU?$char_traits@_W@std@@@std@@QEAAAEAV12@XZ:PROC
EXTRN	__imp_?_Osfx@?$basic_ostream@_WU?$char_traits@_W@std@@@std@@QEAAXXZ:PROC
EXTRN	__imp_?flush@?$basic_ostream@DU?$char_traits@D@std@@@std@@QEAAAEAV12@XZ:PROC
EXTRN	__imp_?_Osfx@?$basic_ostream@DU?$char_traits@D@std@@@std@@QEAAXXZ:PROC
EXTRN	__imp_?tie@?$basic_ios@_WU?$char_traits@_W@std@@@std@@QEBAPEAV?$basic_ostream@_WU?$char_traits@_W@std@@@2@XZ:PROC
EXTRN	__imp_?tie@?$basic_ios@DU?$char_traits@D@std@@@std@@QEBAPEAV?$basic_ostream@DU?$char_traits@D@std@@@2@XZ:PROC
EXTRN	__imp_?setp@?$basic_streambuf@DU?$char_traits@D@std@@@std@@IEAAXPEAD0@Z:PROC
EXTRN	__imp_??0?$basic_streambuf@DU?$char_traits@D@std@@@std@@IEAA@XZ:PROC
EXTRN	__imp_?sputc@?$basic_streambuf@_WU?$char_traits@_W@std@@@std@@QEAAG_W@Z:PROC
EXTRN	__imp_?pbase@?$basic_streambuf@DU?$char_traits@D@std@@@std@@IEBAPEADXZ:PROC
EXTRN	__imp_?sputc@?$basic_streambuf@DU?$char_traits@D@std@@@std@@QEAAHD@Z:PROC
EXTRN	__imp_?widen@?$basic_ios@DU?$char_traits@D@std@@@std@@QEBADD@Z:PROC
EXTRN	__imp_?put@?$basic_ostream@_WU?$char_traits@_W@std@@@std@@QEAAAEAV12@_W@Z:PROC
EXTRN	__imp_?put@?$basic_ostream@DU?$char_traits@D@std@@@std@@QEAAAEAV12@D@Z:PROC
EXTRN	__imp_?widen@?$basic_ios@_WU?$char_traits@_W@std@@@std@@QEBA_WD@Z:PROC
EXTRN	__imp_?fill@?$basic_ios@DU?$char_traits@D@std@@@std@@QEAADD@Z:PROC
EXTRN	__imp_?sputn@?$basic_streambuf@_WU?$char_traits@_W@std@@@std@@QEAA_JPEB_W_J@Z:PROC
EXTRN	__imp_?sputn@?$basic_streambuf@DU?$char_traits@D@std@@@std@@QEAA_JPEBD_J@Z:PROC
EXTRN	__imp__invalid_parameter_noinfo_noreturn:PROC
EXTRN	__imp__Xtime_get_ticks:PROC
EXTRN	??_7type_info@@6B@:BYTE				; type_info::`vftable'
EXTRN	__imp_VirtualFreeEx:PROC
EXTRN	__imp__Query_perf_counter:PROC
EXTRN	__imp_K32EnumProcessModules:PROC
EXTRN	__imp_CreateRemoteThread:PROC
EXTRN	__imp___std_terminate:PROC
EXTRN	__imp_GetModuleHandleW:PROC
EXTRN	__imp_GetCurrentProcessId:PROC
EXTRN	__imp_VirtualAllocEx:PROC
EXTRN	__imp_GetProcAddress:PROC
EXTRN	__imp_LoadLibraryW:PROC
EXTRN	__imp__Thrd_sleep:PROC
EXTRN	__imp_CloseHandle:PROC
EXTRN	__imp_Process32FirstW:PROC
EXTRN	__imp_K32GetModuleBaseNameW:PROC
EXTRN	__imp_Process32NextW:PROC
EXTRN	__imp_GetLastError:PROC
EXTRN	??3@YAXPEAX_K@Z:PROC				; operator delete
EXTRN	??3@YAXPEAX@Z:PROC				; operator delete
EXTRN	__imp_CreateToolhelp32Snapshot:PROC
EXTRN	__imp_OpenProcess:PROC
EXTRN	__imp___std_exception_copy:PROC
EXTRN	__imp___stdio_common_vfwprintf:PROC
EXTRN	__imp_WaitForSingleObject:PROC
EXTRN	__imp_?_Xlength_error@std@@YAXPEBD@Z:PROC
EXTRN	__imp_?setw@std@@YA?AU?$_Smanip@_J@1@_J@Z:PROC
EXTRN	?_Facet_Register@std@@YAXPEAV_Facet_base@1@@Z:PROC ; std::_Facet_Register
EXTRN	__imp_?wcerr@std@@3V?$basic_ostream@_WU?$char_traits@_W@std@@@1@A:BYTE
EXTRN	__imp_?cerr@std@@3V?$basic_ostream@DU?$char_traits@D@std@@@1@A:BYTE
EXTRN	__imp_?id@?$ctype@_W@std@@2V0locale@2@A:QWORD
EXTRN	__imp_?wcout@std@@3V?$basic_ostream@_WU?$char_traits@_W@std@@@1@A:BYTE
EXTRN	__imp_?_Xbad_alloc@std@@YAXXZ:PROC
EXTRN	__imp_?_Getgloballocale@locale@std@@CAPEAV_Locimp@12@XZ:PROC
EXTRN	__imp_?cout@std@@3V?$basic_ostream@DU?$char_traits@D@std@@@1@A:BYTE
EXTRN	__imp_?uncaught_exceptions@std@@YAHXZ:PROC
EXTRN	__imp_??0_Lockit@std@@QEAA@H@Z:PROC
EXTRN	__imp_??1_Lockit@std@@QEAA@XZ:PROC
EXTRN	__imp__Query_perf_frequency:PROC
EXTRN	??2@YAPEAX_K@Z:PROC				; operator new
EXTRN	__imp__wcsicmp:PROC
EXTRN	__imp___acrt_iob_func:PROC
EXTRN	__imp_calloc:PROC
EXTRN	__imp__Mbrtowc:PROC
EXTRN	__imp_WriteProcessMemory:PROC
EXTRN	__imp___std_exception_destroy:PROC
EXTRN	__imp_exit:PROC
EXTRN	__security_check_cookie:PROC
EXTRN	__imp___CxxFrameHandler4:PROC
?originalVirtualAlloc@@3P6APEAXPEAX_KKK@ZEA DQ 01H DUP (?) ; originalVirtualAlloc
?originalCreateRemoteThread@@3P6APEAXPEAXPEAU_SECURITY_ATTRIBUTES@@_KP6AK0@Z0KPEAK@ZEA DQ 01H DUP (?) ; originalCreateRemoteThread
?originalLoadLibraryW@@3P6APEAUHINSTANCE__@@PEB_W@ZEA DQ 01H DUP (?) ; originalLoadLibraryW
?originalSetWindowsHookExW@@3P6APEAUHHOOK__@@HP6A_JH_K_J@ZPEAUHINSTANCE__@@K@ZEA DQ 01H DUP (?) ; originalSetWindowsHookExW
?originalOpenThread@@3P6APEAXKHK@ZEA DQ 01H DUP (?)	; originalOpenThread
?targetPID@@3KA DD 01H DUP (?)				; targetPID
	ALIGN	8

?originalSetWindowsHookExA@@3P6APEAUHHOOK__@@HP6A_JH_K_J@ZPEAUHINSTANCE__@@K@ZEA DQ 01H DUP (?) ; originalSetWindowsHookExA
?originalVirtualAllocEx@@3P6APEAXPEAX0_KKK@ZEA DQ 01H DUP (?) ; originalVirtualAllocEx
_BSS	ENDS
;	COMDAT ?_Psave@?$_Facetptr@V?$ctype@_W@std@@@std@@2PEBVfacet@locale@2@EB
_BSS	SEGMENT
?_Psave@?$_Facetptr@V?$ctype@_W@std@@@std@@2PEBVfacet@locale@2@EB DQ 01H DUP (?) ; std::_Facetptr<std::ctype<wchar_t> >::_Psave
?originalLoadLibraryA@@3P6APEAUHINSTANCE__@@PEBD@ZEA DQ 01H DUP (?) ; originalLoadLibraryA
?originalCreateThread@@3P6APEAXPEAU_SECURITY_ATTRIBUTES@@_KP6AKPEAX@Z2KPEAK@ZEA DQ 01H DUP (?) ; originalCreateThread
?originalWriteProcessMemory@@3P6AHPEAX0PEBX_KPEA_K@ZEA DQ 01H DUP (?) ; originalWriteProcessMemory
_BSS	ENDS
;	COMDAT ??_R0?AVbad_array_new_length@std@@@8
data$r	SEGMENT
??_R0?AVbad_array_new_length@std@@@8 DQ FLAT:??_7type_info@@6B@ ; std::bad_array_new_length `RTTI Type Descriptor'
	DQ	0000000000000000H
	DB	'.?AVbad_array_new_length@std@@', 00H
data$r	ENDS
;	COMDAT ??_R2?$basic_ios@DU?$char_traits@D@std@@@std@@8
rdata$r	SEGMENT
??_R2?$basic_ios@DU?$char_traits@D@std@@@std@@8 DD imagerel ??_R1A@?0A@EA@?$basic_ios@DU?$char_traits@D@std@@@std@@8 ; std::basic_ios<char,std::char_traits<char> >::`RTTI Base Class Array'
	DD	imagerel ??_R1A@?0A@EA@ios_base@std@@8
	DD	imagerel ??_R17?0A@EA@?$_Iosb@H@std@@8
	ORG $+3
rdata$r	ENDS
;	COMDAT ??_R17?0A@EA@?$_Iosb@H@std@@8
rdata$r	SEGMENT
??_R17?0A@EA@?$_Iosb@H@std@@8 DD imagerel ??_R0?AV?$_Iosb@H@std@@@8 ; std::_Iosb<int>::`RTTI Base Class Descriptor at (8,-1,0,64)'
	DD	00H
	DD	08H
	DD	0ffffffffH
	DD	00H
	DD	040H
	DD	imagerel ??_R3?$_Iosb@H@std@@8
rdata$r	ENDS
;	COMDAT ??_R0?AVexception@std@@@8
data$r	SEGMENT
??_R0?AVexception@std@@@8 DQ FLAT:??_7type_info@@6B@	; std::exception `RTTI Type Descriptor'
	DQ	0000000000000000H
	DB	'.?AVexception@std@@', 00H
data$r	ENDS
;	COMDAT ??_R3?$_Iosb@H@std@@8
rdata$r	SEGMENT
??_R3?$_Iosb@H@std@@8 DD 00H				; std::_Iosb<int>::`RTTI Class Hierarchy Descriptor'
	DD	00H
	DD	01H
	DD	imagerel ??_R2?$_Iosb@H@std@@8
rdata$r	ENDS
;	COMDAT _TI3?AVbad_array_new_length@std@@
xdata$x	SEGMENT
_TI3?AVbad_array_new_length@std@@ DD 00H
	DD	imagerel ??1bad_array_new_length@std@@UEAA@XZ
	DD	00H
	DD	imagerel _CTA3?AVbad_array_new_length@std@@
xdata$x	ENDS
;	COMDAT ??_R1A@?0A@EA@?$basic_ios@DU?$char_traits@D@std@@@std@@8
rdata$r	SEGMENT
??_R1A@?0A@EA@?$basic_ios@DU?$char_traits@D@std@@@std@@8 DD imagerel ??_R0?AV?$basic_ios@DU?$char_traits@D@std@@@std@@@8 ; std::basic_ios<char,std::char_traits<char> >::`RTTI Base Class Descriptor at (0,-1,0,64)'
	DD	02H
	DD	00H
	DD	0ffffffffH
	DD	00H
	DD	040H
	DD	imagerel ??_R3?$basic_ios@DU?$char_traits@D@std@@@std@@8
rdata$r	ENDS
;	COMDAT ??_R1A@A@3EA@ios_base@std@@8
rdata$r	SEGMENT
??_R1A@A@3EA@ios_base@std@@8 DD imagerel ??_R0?AVios_base@std@@@8 ; std::ios_base::`RTTI Base Class Descriptor at (0,0,4,64)'
	DD	01H
	DD	00H
	DD	00H
	DD	04H
	DD	040H
	DD	imagerel ??_R3ios_base@std@@8
rdata$r	ENDS
;	COMDAT _CT??_R0?AVexception@std@@@8??0exception@std@@QEAA@AEBV01@@Z24
xdata$x	SEGMENT
_CT??_R0?AVexception@std@@@8??0exception@std@@QEAA@AEBV01@@Z24 DD 00H
	DD	imagerel ??_R0?AVexception@std@@@8
	DD	00H
	DD	0ffffffffH
	ORG $+4
	DD	018H
	DD	imagerel ??0exception@std@@QEAA@AEBV01@@Z
xdata$x	ENDS
;	COMDAT ??_R2?$_Iosb@H@std@@8
rdata$r	SEGMENT
??_R2?$_Iosb@H@std@@8 DD imagerel ??_R1A@?0A@EA@?$_Iosb@H@std@@8 ; std::_Iosb<int>::`RTTI Base Class Array'
	ORG $+3
rdata$r	ENDS
;	COMDAT ??_R3?$basic_stringstream@DU?$char_traits@D@std@@V?$allocator@D@2@@std@@8
rdata$r	SEGMENT
??_R3?$basic_stringstream@DU?$char_traits@D@std@@V?$allocator@D@2@@std@@8 DD 00H ; std::basic_stringstream<char,std::char_traits<char>,std::allocator<char> >::`RTTI Class Hierarchy Descriptor'
	DD	03H
	DD	0aH
	DD	imagerel ??_R2?$basic_stringstream@DU?$char_traits@D@std@@V?$allocator@D@2@@std@@8
rdata$r	ENDS
;	COMDAT ??_R1A@?0A@EA@bad_array_new_length@std@@8
rdata$r	SEGMENT
??_R1A@?0A@EA@bad_array_new_length@std@@8 DD imagerel ??_R0?AVbad_array_new_length@std@@@8 ; std::bad_array_new_length::`RTTI Base Class Descriptor at (0,-1,0,64)'
	DD	02H
	DD	00H
	DD	0ffffffffH
	DD	00H
	DD	040H
	DD	imagerel ??_R3bad_array_new_length@std@@8
rdata$r	ENDS
;	COMDAT ??_R3?$basic_streambuf@DU?$char_traits@D@std@@@std@@8
rdata$r	SEGMENT
??_R3?$basic_streambuf@DU?$char_traits@D@std@@@std@@8 DD 00H ; std::basic_streambuf<char,std::char_traits<char> >::`RTTI Class Hierarchy Descriptor'
	DD	00H
	DD	01H
	DD	imagerel ??_R2?$basic_streambuf@DU?$char_traits@D@std@@@std@@8
rdata$r	ENDS
;	COMDAT ??_R3ios_base@std@@8
rdata$r	SEGMENT
??_R3ios_base@std@@8 DD 00H				; std::ios_base::`RTTI Class Hierarchy Descriptor'
	DD	00H
	DD	02H
	DD	imagerel ??_R2ios_base@std@@8
rdata$r	ENDS
;	COMDAT ??_8?$basic_stringstream@DU?$char_traits@D@std@@V?$allocator@D@2@@std@@7B?$basic_istream@DU?$char_traits@D@std@@@1@@
CONST	SEGMENT
??_8?$basic_stringstream@DU?$char_traits@D@std@@V?$allocator@D@2@@std@@7B?$basic_istream@DU?$char_traits@D@std@@@1@@ DD 00H ; std::basic_stringstream<char,std::char_traits<char>,std::allocator<char> >::`vbtable'
	DD	098H
CONST	ENDS
;	COMDAT ??_R1A@?0A@EA@?$basic_iostream@DU?$char_traits@D@std@@@std@@8
rdata$r	SEGMENT
??_R1A@?0A@EA@?$basic_iostream@DU?$char_traits@D@std@@@std@@8 DD imagerel ??_R0?AV?$basic_iostream@DU?$char_traits@D@std@@@std@@@8 ; std::basic_iostream<char,std::char_traits<char> >::`RTTI Base Class Descriptor at (0,-1,0,64)'
	DD	08H
	DD	00H
	DD	0ffffffffH
	DD	00H
	DD	040H
	DD	imagerel ??_R3?$basic_iostream@DU?$char_traits@D@std@@@std@@8
rdata$r	ENDS
;	COMDAT ??_R3?$basic_ostream@DU?$char_traits@D@std@@@std@@8
rdata$r	SEGMENT
??_R3?$basic_ostream@DU?$char_traits@D@std@@@std@@8 DD 00H ; std::basic_ostream<char,std::char_traits<char> >::`RTTI Class Hierarchy Descriptor'
	DD	00H
	DD	04H
	DD	imagerel ??_R2?$basic_ostream@DU?$char_traits@D@std@@@std@@8
rdata$r	ENDS
;	COMDAT ??_R2ios_base@std@@8
rdata$r	SEGMENT
??_R2ios_base@std@@8 DD imagerel ??_R1A@?0A@EA@ios_base@std@@8 ; std::ios_base::`RTTI Base Class Array'
	DD	imagerel ??_R17?0A@EA@?$_Iosb@H@std@@8
	ORG $+3
rdata$r	ENDS
;	COMDAT ??_R0?AV?$basic_ostream@DU?$char_traits@D@std@@@std@@@8
data$rs	SEGMENT
??_R0?AV?$basic_ostream@DU?$char_traits@D@std@@@std@@@8 DQ FLAT:??_7type_info@@6B@ ; std::basic_ostream<char,std::char_traits<char> > `RTTI Type Descriptor'
	DQ	0000000000000000H
	DB	'.?AV?$basic_ostream@DU?$char_traits@D@std@@@std@@', 00H
data$rs	ENDS
;	COMDAT ??_R4bad_array_new_length@std@@6B@
rdata$r	SEGMENT
??_R4bad_array_new_length@std@@6B@ DD 01H		; std::bad_array_new_length::`RTTI Complete Object Locator'
	DD	00H
	DD	00H
	DD	imagerel ??_R0?AVbad_array_new_length@std@@@8
	DD	imagerel ??_R3bad_array_new_length@std@@8
	DD	imagerel ??_R4bad_array_new_length@std@@6B@
rdata$r	ENDS
;	COMDAT ??_R1A@A@3FA@?$basic_ios@DU?$char_traits@D@std@@@std@@8
rdata$r	SEGMENT
??_R1A@A@3FA@?$basic_ios@DU?$char_traits@D@std@@@std@@8 DD imagerel ??_R0?AV?$basic_ios@DU?$char_traits@D@std@@@std@@@8 ; std::basic_ios<char,std::char_traits<char> >::`RTTI Base Class Descriptor at (0,0,4,80)'
	DD	02H
	DD	00H
	DD	00H
	DD	04H
	DD	050H
	DD	imagerel ??_R3?$basic_ios@DU?$char_traits@D@std@@@std@@8
rdata$r	ENDS
;	COMDAT ??_R3bad_alloc@std@@8
rdata$r	SEGMENT
??_R3bad_alloc@std@@8 DD 00H				; std::bad_alloc::`RTTI Class Hierarchy Descriptor'
	DD	00H
	DD	02H
	DD	imagerel ??_R2bad_alloc@std@@8
rdata$r	ENDS
;	COMDAT ??_R4?$basic_stringstream@DU?$char_traits@D@std@@V?$allocator@D@2@@std@@6B@
rdata$r	SEGMENT
??_R4?$basic_stringstream@DU?$char_traits@D@std@@V?$allocator@D@2@@std@@6B@ DD 01H ; std::basic_stringstream<char,std::char_traits<char>,std::allocator<char> >::`RTTI Complete Object Locator'
	DD	098H
	DD	04H
	DD	imagerel ??_R0?AV?$basic_stringstream@DU?$char_traits@D@std@@V?$allocator@D@2@@std@@@8
	DD	imagerel ??_R3?$basic_stringstream@DU?$char_traits@D@std@@V?$allocator@D@2@@std@@8
	DD	imagerel ??_R4?$basic_stringstream@DU?$char_traits@D@std@@V?$allocator@D@2@@std@@6B@
rdata$r	ENDS
;	COMDAT ??_R4?$basic_stringbuf@DU?$char_traits@D@std@@V?$allocator@D@2@@std@@6B@
rdata$r	SEGMENT
??_R4?$basic_stringbuf@DU?$char_traits@D@std@@V?$allocator@D@2@@std@@6B@ DD 01H ; std::basic_stringbuf<char,std::char_traits<char>,std::allocator<char> >::`RTTI Complete Object Locator'
	DD	00H
	DD	00H
	DD	imagerel ??_R0?AV?$basic_stringbuf@DU?$char_traits@D@std@@V?$allocator@D@2@@std@@@8
	DD	imagerel ??_R3?$basic_stringbuf@DU?$char_traits@D@std@@V?$allocator@D@2@@std@@8
	DD	imagerel ??_R4?$basic_stringbuf@DU?$char_traits@D@std@@V?$allocator@D@2@@std@@6B@
rdata$r	ENDS
;	COMDAT _CT??_R0?AVbad_alloc@std@@@8??0bad_alloc@std@@QEAA@AEBV01@@Z24
xdata$x	SEGMENT
_CT??_R0?AVbad_alloc@std@@@8??0bad_alloc@std@@QEAA@AEBV01@@Z24 DD 010H
	DD	imagerel ??_R0?AVbad_alloc@std@@@8
	DD	00H
	DD	0ffffffffH
	ORG $+4
	DD	018H
	DD	imagerel ??0bad_alloc@std@@QEAA@AEBV01@@Z
xdata$x	ENDS
;	COMDAT ??_R3bad_array_new_length@std@@8
rdata$r	SEGMENT
??_R3bad_array_new_length@std@@8 DD 00H			; std::bad_array_new_length::`RTTI Class Hierarchy Descriptor'
	DD	00H
	DD	03H
	DD	imagerel ??_R2bad_array_new_length@std@@8
rdata$r	ENDS
;	COMDAT _CT??_R0?AVbad_cast@std@@@8??0bad_cast@std@@QEAA@AEBV01@@Z24
xdata$x	SEGMENT
_CT??_R0?AVbad_cast@std@@@8??0bad_cast@std@@QEAA@AEBV01@@Z24 DD 00H
	DD	imagerel ??_R0?AVbad_cast@std@@@8
	DD	00H
	DD	0ffffffffH
	ORG $+4
	DD	018H
	DD	imagerel ??0bad_cast@std@@QEAA@AEBV01@@Z
xdata$x	ENDS
;	COMDAT ??_R4bad_cast@std@@6B@
rdata$r	SEGMENT
??_R4bad_cast@std@@6B@ DD 01H				; std::bad_cast::`RTTI Complete Object Locator'
	DD	00H
	DD	00H
	DD	imagerel ??_R0?AVbad_cast@std@@@8
	DD	imagerel ??_R3bad_cast@std@@8
	DD	imagerel ??_R4bad_cast@std@@6B@
rdata$r	ENDS
;	COMDAT ??_R2?$basic_stringstream@DU?$char_traits@D@std@@V?$allocator@D@2@@std@@8
rdata$r	SEGMENT
??_R2?$basic_stringstream@DU?$char_traits@D@std@@V?$allocator@D@2@@std@@8 DD imagerel ??_R1A@?0A@EA@?$basic_stringstream@DU?$char_traits@D@std@@V?$allocator@D@2@@std@@8 ; std::basic_stringstream<char,std::char_traits<char>,std::allocator<char> >::`RTTI Base Class Array'
	DD	imagerel ??_R1A@?0A@EA@?$basic_iostream@DU?$char_traits@D@std@@@std@@8
	DD	imagerel ??_R1A@?0A@EA@?$basic_istream@DU?$char_traits@D@std@@@std@@8
	DD	imagerel ??_R1A@A@3FA@?$basic_ios@DU?$char_traits@D@std@@@std@@8
	DD	imagerel ??_R1A@A@3EA@ios_base@std@@8
	DD	imagerel ??_R17A@3EA@?$_Iosb@H@std@@8
	DD	imagerel ??_R1BA@?0A@EA@?$basic_ostream@DU?$char_traits@D@std@@@std@@8
	DD	imagerel ??_R1A@A@3FA@?$basic_ios@DU?$char_traits@D@std@@@std@@8
	DD	imagerel ??_R1A@A@3EA@ios_base@std@@8
	DD	imagerel ??_R17A@3EA@?$_Iosb@H@std@@8
	ORG $+3
rdata$r	ENDS
;	COMDAT ??_R4bad_alloc@std@@6B@
rdata$r	SEGMENT
??_R4bad_alloc@std@@6B@ DD 01H				; std::bad_alloc::`RTTI Complete Object Locator'
	DD	00H
	DD	00H
	DD	imagerel ??_R0?AVbad_alloc@std@@@8
	DD	imagerel ??_R3bad_alloc@std@@8
	DD	imagerel ??_R4bad_alloc@std@@6B@
rdata$r	ENDS
;	COMDAT ??_R3bad_cast@std@@8
rdata$r	SEGMENT
??_R3bad_cast@std@@8 DD 00H				; std::bad_cast::`RTTI Class Hierarchy Descriptor'
	DD	00H
	DD	02H
	DD	imagerel ??_R2bad_cast@std@@8
rdata$r	ENDS
;	COMDAT ??_R2?$basic_iostream@DU?$char_traits@D@std@@@std@@8
rdata$r	SEGMENT
??_R2?$basic_iostream@DU?$char_traits@D@std@@@std@@8 DD imagerel ??_R1A@?0A@EA@?$basic_iostream@DU?$char_traits@D@std@@@std@@8 ; std::basic_iostream<char,std::char_traits<char> >::`RTTI Base Class Array'
	DD	imagerel ??_R1A@?0A@EA@?$basic_istream@DU?$char_traits@D@std@@@std@@8
	DD	imagerel ??_R1A@A@3FA@?$basic_ios@DU?$char_traits@D@std@@@std@@8
	DD	imagerel ??_R1A@A@3EA@ios_base@std@@8
	DD	imagerel ??_R17A@3EA@?$_Iosb@H@std@@8
	DD	imagerel ??_R1BA@?0A@EA@?$basic_ostream@DU?$char_traits@D@std@@@std@@8
	DD	imagerel ??_R1A@A@3FA@?$basic_ios@DU?$char_traits@D@std@@@std@@8
	DD	imagerel ??_R1A@A@3EA@ios_base@std@@8
	DD	imagerel ??_R17A@3EA@?$_Iosb@H@std@@8
	ORG $+3
rdata$r	ENDS
;	COMDAT ?less@partial_ordering@std@@2U12@B
CONST	SEGMENT
?less@partial_ordering@std@@2U12@B DB 0ffH		; std::partial_ordering::less
CONST	ENDS
;	COMDAT ?equivalent@partial_ordering@std@@2U12@B
CONST	SEGMENT
?equivalent@partial_ordering@std@@2U12@B DB 00H		; std::partial_ordering::equivalent
CONST	ENDS
;	COMDAT ?less@strong_ordering@std@@2U12@B
CONST	SEGMENT
?less@strong_ordering@std@@2U12@B DB 0ffH		; std::strong_ordering::less
CONST	ENDS
;	COMDAT ?unordered@partial_ordering@std@@2U12@B
CONST	SEGMENT
?unordered@partial_ordering@std@@2U12@B DB 080H		; std::partial_ordering::unordered
CONST	ENDS
;	COMDAT ?greater@partial_ordering@std@@2U12@B
CONST	SEGMENT
?greater@partial_ordering@std@@2U12@B DB 01H		; std::partial_ordering::greater
CONST	ENDS
;	COMDAT ?equal@strong_ordering@std@@2U12@B
CONST	SEGMENT
?equal@strong_ordering@std@@2U12@B DB 00H		; std::strong_ordering::equal
CONST	ENDS
;	COMDAT ?greater@strong_ordering@std@@2U12@B
CONST	SEGMENT
?greater@strong_ordering@std@@2U12@B DB 01H		; std::strong_ordering::greater
CONST	ENDS
;	COMDAT ?_Fake_alloc@std@@3U_Fake_allocator@1@B
CONST	SEGMENT
?_Fake_alloc@std@@3U_Fake_allocator@1@B	ORG $+1		; std::_Fake_alloc
CONST	ENDS
;	COMDAT ??_R1A@?0A@EA@?$basic_stringbuf@DU?$char_traits@D@std@@V?$allocator@D@2@@std@@8
rdata$r	SEGMENT
??_R1A@?0A@EA@?$basic_stringbuf@DU?$char_traits@D@std@@V?$allocator@D@2@@std@@8 DD imagerel ??_R0?AV?$basic_stringbuf@DU?$char_traits@D@std@@V?$allocator@D@2@@std@@@8 ; std::basic_stringbuf<char,std::char_traits<char>,std::allocator<char> >::`RTTI Base Class Descriptor at (0,-1,0,64)'
	DD	01H
	DD	00H
	DD	0ffffffffH
	DD	00H
	DD	040H
	DD	imagerel ??_R3?$basic_stringbuf@DU?$char_traits@D@std@@V?$allocator@D@2@@std@@8
rdata$r	ENDS
;	COMDAT ??_R1A@?0A@EA@?$_Iosb@H@std@@8
rdata$r	SEGMENT
??_R1A@?0A@EA@?$_Iosb@H@std@@8 DD imagerel ??_R0?AV?$_Iosb@H@std@@@8 ; std::_Iosb<int>::`RTTI Base Class Descriptor at (0,-1,0,64)'
	DD	00H
	DD	00H
	DD	0ffffffffH
	DD	00H
	DD	040H
	DD	imagerel ??_R3?$_Iosb@H@std@@8
rdata$r	ENDS
;	COMDAT ??_R2?$basic_streambuf@DU?$char_traits@D@std@@@std@@8
rdata$r	SEGMENT
??_R2?$basic_streambuf@DU?$char_traits@D@std@@@std@@8 DD imagerel ??_R1A@?0A@EA@?$basic_streambuf@DU?$char_traits@D@std@@@std@@8 ; std::basic_streambuf<char,std::char_traits<char> >::`RTTI Base Class Array'
	ORG $+3
rdata$r	ENDS
;	COMDAT ??_7?$basic_stringstream@DU?$char_traits@D@std@@V?$allocator@D@2@@std@@6B@
CONST	SEGMENT
??_7?$basic_stringstream@DU?$char_traits@D@std@@V?$allocator@D@2@@std@@6B@ DQ FLAT:??_R4?$basic_stringstream@DU?$char_traits@D@std@@V?$allocator@D@2@@std@@6B@ ; std::basic_stringstream<char,std::char_traits<char>,std::allocator<char> >::`vftable'
	DQ	FLAT:??_E?$basic_stringstream@DU?$char_traits@D@std@@V?$allocator@D@2@@std@@$4PPPPPPPM@A@EAAPEAXI@Z
CONST	ENDS
;	COMDAT ??_R0?AV?$basic_ios@DU?$char_traits@D@std@@@std@@@8
data$rs	SEGMENT
??_R0?AV?$basic_ios@DU?$char_traits@D@std@@@std@@@8 DQ FLAT:??_7type_info@@6B@ ; std::basic_ios<char,std::char_traits<char> > `RTTI Type Descriptor'
	DQ	0000000000000000H
	DB	'.?AV?$basic_ios@DU?$char_traits@D@std@@@std@@', 00H
data$rs	ENDS
;	COMDAT ??_R1A@?0A@EA@?$basic_ostream@DU?$char_traits@D@std@@@std@@8
rdata$r	SEGMENT
??_R1A@?0A@EA@?$basic_ostream@DU?$char_traits@D@std@@@std@@8 DD imagerel ??_R0?AV?$basic_ostream@DU?$char_traits@D@std@@@std@@@8 ; std::basic_ostream<char,std::char_traits<char> >::`RTTI Base Class Descriptor at (0,-1,0,64)'
	DD	03H
	DD	00H
	DD	0ffffffffH
	DD	00H
	DD	040H
	DD	imagerel ??_R3?$basic_ostream@DU?$char_traits@D@std@@@std@@8
rdata$r	ENDS
;	COMDAT _CT??_R0?AVbad_array_new_length@std@@@8??0bad_array_new_length@std@@QEAA@AEBV01@@Z24
xdata$x	SEGMENT
_CT??_R0?AVbad_array_new_length@std@@@8??0bad_array_new_length@std@@QEAA@AEBV01@@Z24 DD 00H
	DD	imagerel ??_R0?AVbad_array_new_length@std@@@8
	DD	00H
	DD	0ffffffffH
	ORG $+4
	DD	018H
	DD	imagerel ??0bad_array_new_length@std@@QEAA@AEBV01@@Z
xdata$x	ENDS
;	COMDAT ??_R3exception@std@@8
rdata$r	SEGMENT
??_R3exception@std@@8 DD 00H				; std::exception::`RTTI Class Hierarchy Descriptor'
	DD	00H
	DD	01H
	DD	imagerel ??_R2exception@std@@8
rdata$r	ENDS
;	COMDAT ??_R1A@?0A@EA@ios_base@std@@8
rdata$r	SEGMENT
??_R1A@?0A@EA@ios_base@std@@8 DD imagerel ??_R0?AVios_base@std@@@8 ; std::ios_base::`RTTI Base Class Descriptor at (0,-1,0,64)'
	DD	01H
	DD	00H
	DD	0ffffffffH
	DD	00H
	DD	040H
	DD	imagerel ??_R3ios_base@std@@8
rdata$r	ENDS
;	COMDAT ??_R0?AV?$basic_istream@DU?$char_traits@D@std@@@std@@@8
data$rs	SEGMENT
??_R0?AV?$basic_istream@DU?$char_traits@D@std@@@std@@@8 DQ FLAT:??_7type_info@@6B@ ; std::basic_istream<char,std::char_traits<char> > `RTTI Type Descriptor'
	DQ	0000000000000000H
	DB	'.?AV?$basic_istream@DU?$char_traits@D@std@@@std@@', 00H
data$rs	ENDS
;	COMDAT ??_R1BA@?0A@EA@?$basic_ostream@DU?$char_traits@D@std@@@std@@8
rdata$r	SEGMENT
??_R1BA@?0A@EA@?$basic_ostream@DU?$char_traits@D@std@@@std@@8 DD imagerel ??_R0?AV?$basic_ostream@DU?$char_traits@D@std@@@std@@@8 ; std::basic_ostream<char,std::char_traits<char> >::`RTTI Base Class Descriptor at (16,-1,0,64)'
	DD	03H
	DD	010H
	DD	0ffffffffH
	DD	00H
	DD	040H
	DD	imagerel ??_R3?$basic_ostream@DU?$char_traits@D@std@@@std@@8
rdata$r	ENDS
;	COMDAT ??_7exception@std@@6B@
CONST	SEGMENT
??_7exception@std@@6B@ DQ FLAT:??_R4exception@std@@6B@	; std::exception::`vftable'
	DQ	FLAT:??_Eexception@std@@UEAAPEAXI@Z
	DQ	FLAT:?what@exception@std@@UEBAPEBDXZ
CONST	ENDS
;	COMDAT ??_7?$basic_stringbuf@DU?$char_traits@D@std@@V?$allocator@D@2@@std@@6B@
CONST	SEGMENT
??_7?$basic_stringbuf@DU?$char_traits@D@std@@V?$allocator@D@2@@std@@6B@ DQ FLAT:??_R4?$basic_stringbuf@DU?$char_traits@D@std@@V?$allocator@D@2@@std@@6B@ ; std::basic_stringbuf<char,std::char_traits<char>,std::allocator<char> >::`vftable'
	DQ	FLAT:??_E?$basic_stringbuf@DU?$char_traits@D@std@@V?$allocator@D@2@@std@@UEAAPEAXI@Z
	DQ	FLAT:?_Lock@?$basic_streambuf@DU?$char_traits@D@std@@@std@@UEAAXXZ
	DQ	FLAT:?_Unlock@?$basic_streambuf@DU?$char_traits@D@std@@@std@@UEAAXXZ
	DQ	FLAT:?overflow@?$basic_stringbuf@DU?$char_traits@D@std@@V?$allocator@D@2@@std@@MEAAHH@Z
	DQ	FLAT:?pbackfail@?$basic_stringbuf@DU?$char_traits@D@std@@V?$allocator@D@2@@std@@MEAAHH@Z
	DQ	FLAT:?showmanyc@?$basic_streambuf@DU?$char_traits@D@std@@@std@@MEAA_JXZ
	DQ	FLAT:?underflow@?$basic_stringbuf@DU?$char_traits@D@std@@V?$allocator@D@2@@std@@MEAAHXZ
	DQ	FLAT:?uflow@?$basic_streambuf@DU?$char_traits@D@std@@@std@@MEAAHXZ
	DQ	FLAT:?xsgetn@?$basic_streambuf@DU?$char_traits@D@std@@@std@@MEAA_JPEAD_J@Z
	DQ	FLAT:?xsputn@?$basic_streambuf@DU?$char_traits@D@std@@@std@@MEAA_JPEBD_J@Z
	DQ	FLAT:?seekoff@?$basic_stringbuf@DU?$char_traits@D@std@@V?$allocator@D@2@@std@@MEAA?AV?$fpos@U_Mbstatet@@@2@_JHH@Z
	DQ	FLAT:?seekpos@?$basic_stringbuf@DU?$char_traits@D@std@@V?$allocator@D@2@@std@@MEAA?AV?$fpos@U_Mbstatet@@@2@V32@H@Z
	DQ	FLAT:?setbuf@?$basic_streambuf@DU?$char_traits@D@std@@@std@@MEAAPEAV12@PEAD_J@Z
	DQ	FLAT:?sync@?$basic_streambuf@DU?$char_traits@D@std@@@std@@MEAAHXZ
	DQ	FLAT:?imbue@?$basic_streambuf@DU?$char_traits@D@std@@@std@@MEAAXAEBVlocale@2@@Z
CONST	ENDS
;	COMDAT _TI2?AVbad_cast@std@@
xdata$x	SEGMENT
_TI2?AVbad_cast@std@@ DD 00H
	DD	imagerel ??1bad_cast@std@@UEAA@XZ
	DD	00H
	DD	imagerel _CTA2?AVbad_cast@std@@
xdata$x	ENDS
;	COMDAT ??_R0?AVbad_cast@std@@@8
data$r	SEGMENT
??_R0?AVbad_cast@std@@@8 DQ FLAT:??_7type_info@@6B@	; std::bad_cast `RTTI Type Descriptor'
	DQ	0000000000000000H
	DB	'.?AVbad_cast@std@@', 00H
data$r	ENDS
;	COMDAT ??_R3?$basic_ios@DU?$char_traits@D@std@@@std@@8
rdata$r	SEGMENT
??_R3?$basic_ios@DU?$char_traits@D@std@@@std@@8 DD 00H	; std::basic_ios<char,std::char_traits<char> >::`RTTI Class Hierarchy Descriptor'
	DD	00H
	DD	03H
	DD	imagerel ??_R2?$basic_ios@DU?$char_traits@D@std@@@std@@8
rdata$r	ENDS
;	COMDAT ??_7bad_cast@std@@6B@
CONST	SEGMENT
??_7bad_cast@std@@6B@ DQ FLAT:??_R4bad_cast@std@@6B@	; std::bad_cast::`vftable'
	DQ	FLAT:??_Ebad_cast@std@@UEAAPEAXI@Z
	DQ	FLAT:?what@exception@std@@UEBAPEBDXZ
CONST	ENDS
;	COMDAT ??_R2?$basic_ostream@DU?$char_traits@D@std@@@std@@8
rdata$r	SEGMENT
??_R2?$basic_ostream@DU?$char_traits@D@std@@@std@@8 DD imagerel ??_R1A@?0A@EA@?$basic_ostream@DU?$char_traits@D@std@@@std@@8 ; std::basic_ostream<char,std::char_traits<char> >::`RTTI Base Class Array'
	DD	imagerel ??_R1A@A@3FA@?$basic_ios@DU?$char_traits@D@std@@@std@@8
	DD	imagerel ??_R1A@A@3EA@ios_base@std@@8
	DD	imagerel ??_R17A@3EA@?$_Iosb@H@std@@8
	ORG $+3
rdata$r	ENDS
;	COMDAT ??_R2exception@std@@8
rdata$r	SEGMENT
??_R2exception@std@@8 DD imagerel ??_R1A@?0A@EA@exception@std@@8 ; std::exception::`RTTI Base Class Array'
	ORG $+3
rdata$r	ENDS
;	COMDAT ??_R2bad_cast@std@@8
rdata$r	SEGMENT
??_R2bad_cast@std@@8 DD imagerel ??_R1A@?0A@EA@bad_cast@std@@8 ; std::bad_cast::`RTTI Base Class Array'
	DD	imagerel ??_R1A@?0A@EA@exception@std@@8
	ORG $+3
rdata$r	ENDS
;	COMDAT ??_R3?$basic_stringbuf@DU?$char_traits@D@std@@V?$allocator@D@2@@std@@8
rdata$r	SEGMENT
??_R3?$basic_stringbuf@DU?$char_traits@D@std@@V?$allocator@D@2@@std@@8 DD 00H ; std::basic_stringbuf<char,std::char_traits<char>,std::allocator<char> >::`RTTI Class Hierarchy Descriptor'
	DD	00H
	DD	02H
	DD	imagerel ??_R2?$basic_stringbuf@DU?$char_traits@D@std@@V?$allocator@D@2@@std@@8
rdata$r	ENDS
;	COMDAT ??_R0?AV?$basic_streambuf@DU?$char_traits@D@std@@@std@@@8
data$rs	SEGMENT
??_R0?AV?$basic_streambuf@DU?$char_traits@D@std@@@std@@@8 DQ FLAT:??_7type_info@@6B@ ; std::basic_streambuf<char,std::char_traits<char> > `RTTI Type Descriptor'
	DQ	0000000000000000H
	DB	'.?AV?$basic_streambuf@DU?$char_traits@D@std@@@std@@', 00H
data$rs	ENDS
;	COMDAT ??_7bad_alloc@std@@6B@
CONST	SEGMENT
??_7bad_alloc@std@@6B@ DQ FLAT:??_R4bad_alloc@std@@6B@	; std::bad_alloc::`vftable'
	DQ	FLAT:??_Ebad_alloc@std@@UEAAPEAXI@Z
	DQ	FLAT:?what@exception@std@@UEBAPEBDXZ
CONST	ENDS
;	COMDAT _CTA2?AVbad_cast@std@@
xdata$x	SEGMENT
_CTA2?AVbad_cast@std@@ DD 02H
	DD	imagerel _CT??_R0?AVbad_cast@std@@@8??0bad_cast@std@@QEAA@AEBV01@@Z24
	DD	imagerel _CT??_R0?AVexception@std@@@8??0exception@std@@QEAA@AEBV01@@Z24
xdata$x	ENDS
;	COMDAT ??_R0?AV?$_Iosb@H@std@@@8
data$rs	SEGMENT
??_R0?AV?$_Iosb@H@std@@@8 DQ FLAT:??_7type_info@@6B@	; std::_Iosb<int> `RTTI Type Descriptor'
	DQ	0000000000000000H
	DB	'.?AV?$_Iosb@H@std@@', 00H
data$rs	ENDS
;	COMDAT ??_R2?$basic_istream@DU?$char_traits@D@std@@@std@@8
rdata$r	SEGMENT
??_R2?$basic_istream@DU?$char_traits@D@std@@@std@@8 DD imagerel ??_R1A@?0A@EA@?$basic_istream@DU?$char_traits@D@std@@@std@@8 ; std::basic_istream<char,std::char_traits<char> >::`RTTI Base Class Array'
	DD	imagerel ??_R1A@A@3FA@?$basic_ios@DU?$char_traits@D@std@@@std@@8
	DD	imagerel ??_R1A@A@3EA@ios_base@std@@8
	DD	imagerel ??_R17A@3EA@?$_Iosb@H@std@@8
	ORG $+3
rdata$r	ENDS
;	COMDAT ??_8?$basic_stringstream@DU?$char_traits@D@std@@V?$allocator@D@2@@std@@7B?$basic_ostream@DU?$char_traits@D@std@@@1@@
CONST	SEGMENT
??_8?$basic_stringstream@DU?$char_traits@D@std@@V?$allocator@D@2@@std@@7B?$basic_ostream@DU?$char_traits@D@std@@@1@@ DD 00H ; std::basic_stringstream<char,std::char_traits<char>,std::allocator<char> >::`vbtable'
	DD	088H
CONST	ENDS
;	COMDAT ??_R1A@?0A@EA@bad_alloc@std@@8
rdata$r	SEGMENT
??_R1A@?0A@EA@bad_alloc@std@@8 DD imagerel ??_R0?AVbad_alloc@std@@@8 ; std::bad_alloc::`RTTI Base Class Descriptor at (0,-1,0,64)'
	DD	01H
	DD	00H
	DD	0ffffffffH
	DD	00H
	DD	040H
	DD	imagerel ??_R3bad_alloc@std@@8
rdata$r	ENDS
;	COMDAT ??_R1A@?0A@EA@?$basic_streambuf@DU?$char_traits@D@std@@@std@@8
rdata$r	SEGMENT
??_R1A@?0A@EA@?$basic_streambuf@DU?$char_traits@D@std@@@std@@8 DD imagerel ??_R0?AV?$basic_streambuf@DU?$char_traits@D@std@@@std@@@8 ; std::basic_streambuf<char,std::char_traits<char> >::`RTTI Base Class Descriptor at (0,-1,0,64)'
	DD	00H
	DD	00H
	DD	0ffffffffH
	DD	00H
	DD	040H
	DD	imagerel ??_R3?$basic_streambuf@DU?$char_traits@D@std@@@std@@8
rdata$r	ENDS
;	COMDAT ??_R1A@?0A@EA@exception@std@@8
rdata$r	SEGMENT
??_R1A@?0A@EA@exception@std@@8 DD imagerel ??_R0?AVexception@std@@@8 ; std::exception::`RTTI Base Class Descriptor at (0,-1,0,64)'
	DD	00H
	DD	00H
	DD	0ffffffffH
	DD	00H
	DD	040H
	DD	imagerel ??_R3exception@std@@8
rdata$r	ENDS
;	COMDAT ??_R1A@?0A@EA@?$basic_stringstream@DU?$char_traits@D@std@@V?$allocator@D@2@@std@@8
rdata$r	SEGMENT
??_R1A@?0A@EA@?$basic_stringstream@DU?$char_traits@D@std@@V?$allocator@D@2@@std@@8 DD imagerel ??_R0?AV?$basic_stringstream@DU?$char_traits@D@std@@V?$allocator@D@2@@std@@@8 ; std::basic_stringstream<char,std::char_traits<char>,std::allocator<char> >::`RTTI Base Class Descriptor at (0,-1,0,64)'
	DD	09H
	DD	00H
	DD	0ffffffffH
	DD	00H
	DD	040H
	DD	imagerel ??_R3?$basic_stringstream@DU?$char_traits@D@std@@V?$allocator@D@2@@std@@8
rdata$r	ENDS
;	COMDAT ??_R17A@3EA@?$_Iosb@H@std@@8
rdata$r	SEGMENT
??_R17A@3EA@?$_Iosb@H@std@@8 DD imagerel ??_R0?AV?$_Iosb@H@std@@@8 ; std::_Iosb<int>::`RTTI Base Class Descriptor at (8,0,4,64)'
	DD	00H
	DD	08H
	DD	00H
	DD	04H
	DD	040H
	DD	imagerel ??_R3?$_Iosb@H@std@@8
rdata$r	ENDS
;	COMDAT ??_R0?AV?$basic_iostream@DU?$char_traits@D@std@@@std@@@8
data$rs	SEGMENT
??_R0?AV?$basic_iostream@DU?$char_traits@D@std@@@std@@@8 DQ FLAT:??_7type_info@@6B@ ; std::basic_iostream<char,std::char_traits<char> > `RTTI Type Descriptor'
	DQ	0000000000000000H
	DB	'.?AV?$basic_iostream@DU?$char_traits@D@std@@@std@@', 00H
data$rs	ENDS
;	COMDAT ??_7bad_array_new_length@std@@6B@
CONST	SEGMENT
??_7bad_array_new_length@std@@6B@ DQ FLAT:??_R4bad_array_new_length@std@@6B@ ; std::bad_array_new_length::`vftable'
	DQ	FLAT:??_Ebad_array_new_length@std@@UEAAPEAXI@Z
	DQ	FLAT:?what@exception@std@@UEBAPEBDXZ
CONST	ENDS
;	COMDAT _CTA3?AVbad_array_new_length@std@@
xdata$x	SEGMENT
_CTA3?AVbad_array_new_length@std@@ DD 03H
	DD	imagerel _CT??_R0?AVbad_array_new_length@std@@@8??0bad_array_new_length@std@@QEAA@AEBV01@@Z24
	DD	imagerel _CT??_R0?AVbad_alloc@std@@@8??0bad_alloc@std@@QEAA@AEBV01@@Z24
	DD	imagerel _CT??_R0?AVexception@std@@@8??0exception@std@@QEAA@AEBV01@@Z24
xdata$x	ENDS
;	COMDAT ??_R2?$basic_stringbuf@DU?$char_traits@D@std@@V?$allocator@D@2@@std@@8
rdata$r	SEGMENT
??_R2?$basic_stringbuf@DU?$char_traits@D@std@@V?$allocator@D@2@@std@@8 DD imagerel ??_R1A@?0A@EA@?$basic_stringbuf@DU?$char_traits@D@std@@V?$allocator@D@2@@std@@8 ; std::basic_stringbuf<char,std::char_traits<char>,std::allocator<char> >::`RTTI Base Class Array'
	DD	imagerel ??_R1A@?0A@EA@?$basic_streambuf@DU?$char_traits@D@std@@@std@@8
	ORG $+3
rdata$r	ENDS
;	COMDAT ??_R0?AVios_base@std@@@8
data$rs	SEGMENT
??_R0?AVios_base@std@@@8 DQ FLAT:??_7type_info@@6B@	; std::ios_base `RTTI Type Descriptor'
	DQ	0000000000000000H
	DB	'.?AVios_base@std@@', 00H
data$rs	ENDS
;	COMDAT ??_R2bad_alloc@std@@8
rdata$r	SEGMENT
??_R2bad_alloc@std@@8 DD imagerel ??_R1A@?0A@EA@bad_alloc@std@@8 ; std::bad_alloc::`RTTI Base Class Array'
	DD	imagerel ??_R1A@?0A@EA@exception@std@@8
	ORG $+3
rdata$r	ENDS
;	COMDAT ??_R0?AV?$basic_stringbuf@DU?$char_traits@D@std@@V?$allocator@D@2@@std@@@8
data$rs	SEGMENT
??_R0?AV?$basic_stringbuf@DU?$char_traits@D@std@@V?$allocator@D@2@@std@@@8 DQ FLAT:??_7type_info@@6B@ ; std::basic_stringbuf<char,std::char_traits<char>,std::allocator<char> > `RTTI Type Descriptor'
	DQ	0000000000000000H
	DB	'.?AV?$basic_stringbuf@DU?$char_traits@D@std@@V?$allocato'
	DB	'r@D@2@@std@@', 00H
data$rs	ENDS
;	COMDAT ??_R1A@?0A@EA@bad_cast@std@@8
rdata$r	SEGMENT
??_R1A@?0A@EA@bad_cast@std@@8 DD imagerel ??_R0?AVbad_cast@std@@@8 ; std::bad_cast::`RTTI Base Class Descriptor at (0,-1,0,64)'
	DD	01H
	DD	00H
	DD	0ffffffffH
	DD	00H
	DD	040H
	DD	imagerel ??_R3bad_cast@std@@8
rdata$r	ENDS
;	COMDAT ??_R1A@?0A@EA@?$basic_istream@DU?$char_traits@D@std@@@std@@8
rdata$r	SEGMENT
??_R1A@?0A@EA@?$basic_istream@DU?$char_traits@D@std@@@std@@8 DD imagerel ??_R0?AV?$basic_istream@DU?$char_traits@D@std@@@std@@@8 ; std::basic_istream<char,std::char_traits<char> >::`RTTI Base Class Descriptor at (0,-1,0,64)'
	DD	03H
	DD	00H
	DD	0ffffffffH
	DD	00H
	DD	040H
	DD	imagerel ??_R3?$basic_istream@DU?$char_traits@D@std@@@std@@8
rdata$r	ENDS
;	COMDAT ??_R0?AVbad_alloc@std@@@8
data$r	SEGMENT
??_R0?AVbad_alloc@std@@@8 DQ FLAT:??_7type_info@@6B@	; std::bad_alloc `RTTI Type Descriptor'
	DQ	0000000000000000H
	DB	'.?AVbad_alloc@std@@', 00H
data$r	ENDS
;	COMDAT ??_R2bad_array_new_length@std@@8
rdata$r	SEGMENT
??_R2bad_array_new_length@std@@8 DD imagerel ??_R1A@?0A@EA@bad_array_new_length@std@@8 ; std::bad_array_new_length::`RTTI Base Class Array'
	DD	imagerel ??_R1A@?0A@EA@bad_alloc@std@@8
	DD	imagerel ??_R1A@?0A@EA@exception@std@@8
	ORG $+3
rdata$r	ENDS
;	COMDAT ??_R4exception@std@@6B@
rdata$r	SEGMENT
??_R4exception@std@@6B@ DD 01H				; std::exception::`RTTI Complete Object Locator'
	DD	00H
	DD	00H
	DD	imagerel ??_R0?AVexception@std@@@8
	DD	imagerel ??_R3exception@std@@8
	DD	imagerel ??_R4exception@std@@6B@
rdata$r	ENDS
;	COMDAT ??_R0?AV?$basic_stringstream@DU?$char_traits@D@std@@V?$allocator@D@2@@std@@@8
data$rs	SEGMENT
??_R0?AV?$basic_stringstream@DU?$char_traits@D@std@@V?$allocator@D@2@@std@@@8 DQ FLAT:??_7type_info@@6B@ ; std::basic_stringstream<char,std::char_traits<char>,std::allocator<char> > `RTTI Type Descriptor'
	DQ	0000000000000000H
	DB	'.?AV?$basic_stringstream@DU?$char_traits@D@std@@V?$alloc'
	DB	'ator@D@2@@std@@', 00H
data$rs	ENDS
;	COMDAT ??_R3?$basic_iostream@DU?$char_traits@D@std@@@std@@8
rdata$r	SEGMENT
??_R3?$basic_iostream@DU?$char_traits@D@std@@@std@@8 DD 00H ; std::basic_iostream<char,std::char_traits<char> >::`RTTI Class Hierarchy Descriptor'
	DD	03H
	DD	09H
	DD	imagerel ??_R2?$basic_iostream@DU?$char_traits@D@std@@@std@@8
rdata$r	ENDS
;	COMDAT ??_R3?$basic_istream@DU?$char_traits@D@std@@@std@@8
rdata$r	SEGMENT
??_R3?$basic_istream@DU?$char_traits@D@std@@@std@@8 DD 00H ; std::basic_istream<char,std::char_traits<char> >::`RTTI Class Hierarchy Descriptor'
	DD	00H
	DD	04H
	DD	imagerel ??_R2?$basic_istream@DU?$char_traits@D@std@@@std@@8
rdata$r	ENDS
;	COMDAT ??_C@_1BK@MHIKGOKE@?$AA?3?$AAA?$AAM?$AA?3?$AAa?$AAm?$AA?3?$AAP?$AAM?$AA?3?$AAp?$AAm@
CONST	SEGMENT
??_C@_1BK@MHIKGOKE@?$AA?3?$AAA?$AAM?$AA?3?$AAa?$AAm?$AA?3?$AAP?$AAM?$AA?3?$AAp?$AAm@ DB ':'
	DB	00H, 'A', 00H, 'M', 00H, ':', 00H, 'a', 00H, 'm', 00H, ':', 00H
	DB	'P', 00H, 'M', 00H, ':', 00H, 'p', 00H, 'm', 00H, 00H, 00H ; `string'
CONST	ENDS
;	COMDAT ??_C@_0N@LPFKKEBD@?3AM?3am?3PM?3pm@
CONST	SEGMENT
??_C@_0N@LPFKKEBD@?3AM?3am?3PM?3pm@ DB ':AM:am:PM:pm', 00H ; `string'
CONST	ENDS
;	COMDAT ??_C@_0BH@PFNAFLAH@Failed?5to?5enable?5hooks@
CONST	SEGMENT
??_C@_0BH@PFNAFLAH@Failed?5to?5enable?5hooks@ DB 'Failed to enable hooks', 00H ; `string'
CONST	ENDS
;	COMDAT ??_C@_1BG@OILDLIOJ@?$AAu?$AAs?$AAe?$AAr?$AA3?$AA2?$AA?4?$AAd?$AAl?$AAl@
CONST	SEGMENT
??_C@_1BG@OILDLIOJ@?$AAu?$AAs?$AAe?$AAr?$AA3?$AA2?$AA?4?$AAd?$AAl?$AAl@ DB 'u'
	DB	00H, 's', 00H, 'e', 00H, 'r', 00H, '3', 00H, '2', 00H, '.', 00H
	DB	'd', 00H, 'l', 00H, 'l', 00H, 00H, 00H	; `string'
CONST	ENDS
;	COMDAT ??_C@_0EN@LNAMCKEC@Failed?5to?5get?5function?5address?5@
CONST	SEGMENT
??_C@_0EN@LNAMCKEC@Failed?5to?5get?5function?5address?5@ DB 'Failed to ge'
	DB	't function address from kernel32.dll or user32.dll. Error cod'
	DB	'e: ', 00H					; `string'
CONST	ENDS
;	COMDAT ??_C@_0BC@PIBNIJA@SetWindowsHookExW@
CONST	SEGMENT
??_C@_0BC@PIBNIJA@SetWindowsHookExW@ DB 'SetWindowsHookExW', 00H ; `string'
CONST	ENDS
;	COMDAT ??_C@_0BC@BDBJGNEH@SetWindowsHookExA@
CONST	SEGMENT
??_C@_0BC@BDBJGNEH@SetWindowsHookExA@ DB 'SetWindowsHookExA', 00H ; `string'
CONST	ENDS
;	COMDAT ??_C@_0N@KCFDJLIF@LoadLibraryW@
CONST	SEGMENT
??_C@_0N@KCFDJLIF@LoadLibraryW@ DB 'LoadLibraryW', 00H	; `string'
CONST	ENDS
;	COMDAT ??_C@_0N@LOMLCOFC@LoadLibraryA@
CONST	SEGMENT
??_C@_0N@LOMLCOFC@LoadLibraryA@ DB 'LoadLibraryA', 00H	; `string'
CONST	ENDS
;	COMDAT ??_C@_0L@EHKLHJ@OpenThread@
CONST	SEGMENT
??_C@_0L@EHKLHJ@OpenThread@ DB 'OpenThread', 00H	; `string'
CONST	ENDS
;	COMDAT ??_C@_0N@OGAMMJPI@CreateThread@
CONST	SEGMENT
??_C@_0N@OGAMMJPI@CreateThread@ DB 'CreateThread', 00H	; `string'
CONST	ENDS
;	COMDAT ??_C@_0BD@DALFIAJK@CreateRemoteThread@
CONST	SEGMENT
??_C@_0BD@DALFIAJK@CreateRemoteThread@ DB 'CreateRemoteThread', 00H ; `string'
CONST	ENDS
;	COMDAT ??_C@_0BD@PBGEEFCK@WriteProcessMemory@
CONST	SEGMENT
??_C@_0BD@PBGEEFCK@WriteProcessMemory@ DB 'WriteProcessMemory', 00H ; `string'
CONST	ENDS
;	COMDAT ??_C@_0P@CFHGADNN@VirtualAllocEx@
CONST	SEGMENT
??_C@_0P@CFHGADNN@VirtualAllocEx@ DB 'VirtualAllocEx', 00H ; `string'
CONST	ENDS
;	COMDAT ??_C@_0N@LLPNHGPB@VirtualAlloc@
CONST	SEGMENT
??_C@_0N@LLPNHGPB@VirtualAlloc@ DB 'VirtualAlloc', 00H	; `string'
CONST	ENDS
;	COMDAT ??_C@_0DC@JGNCJOMI@Failed?5to?5get?5handle?5for?5user32@
CONST	SEGMENT
??_C@_0DC@JGNCJOMI@Failed?5to?5get?5handle?5for?5user32@ DB 'Failed to ge'
	DB	't handle for user32.dll. Error code: ', 00H	; `string'
CONST	ENDS
;	COMDAT ??_C@_1DO@JMLHEEH@?$AAC?$AA?3?$AA?2?$AAW?$AAi?$AAn?$AAd?$AAo?$AAw?$AAs?$AA?2?$AAS?$AAy?$AAs?$AAt@
CONST	SEGMENT
??_C@_1DO@JMLHEEH@?$AAC?$AA?3?$AA?2?$AAW?$AAi?$AAn?$AAd?$AAo?$AAw?$AAs?$AA?2?$AAS?$AAy?$AAs?$AAt@ DB 'C'
	DB	00H, ':', 00H, '\', 00H, 'W', 00H, 'i', 00H, 'n', 00H, 'd', 00H
	DB	'o', 00H, 'w', 00H, 's', 00H, '\', 00H, 'S', 00H, 'y', 00H, 's'
	DB	00H, 't', 00H, 'e', 00H, 'm', 00H, '3', 00H, '2', 00H, '\', 00H
	DB	'u', 00H, 's', 00H, 'e', 00H, 'r', 00H, '3', 00H, '2', 00H, '.'
	DB	00H, 'd', 00H, 'l', 00H, 'l', 00H, 00H, 00H	; `string'
CONST	ENDS
;	COMDAT ??_C@_0DE@ELACACCO@Failed?5to?5get?5handle?5for?5kernel@
CONST	SEGMENT
??_C@_0DE@ELACACCO@Failed?5to?5get?5handle?5for?5kernel@ DB 'Failed to ge'
	DB	't handle for kernel32.dll. Error code: ', 00H ; `string'
CONST	ENDS
;	COMDAT ??_C@_1BK@MGMFAEKH@?$AAk?$AAe?$AAr?$AAn?$AAe?$AAl?$AA3?$AA2?$AA?4?$AAd?$AAl?$AAl@
CONST	SEGMENT
??_C@_1BK@MGMFAEKH@?$AAk?$AAe?$AAr?$AAn?$AAe?$AAl?$AA3?$AA2?$AA?4?$AAd?$AAl?$AAl@ DB 'k'
	DB	00H, 'e', 00H, 'r', 00H, 'n', 00H, 'e', 00H, 'l', 00H, '3', 00H
	DB	'2', 00H, '.', 00H, 'd', 00H, 'l', 00H, 'l', 00H, 00H, 00H ; `string'
CONST	ENDS
;	COMDAT ??_C@_1FK@LDHBEBHF@?$AAF?$AAa?$AAi?$AAl?$AAe?$AAd?$AA?5?$AAt?$AAo?$AA?5?$AAo?$AAp?$AAe?$AAn?$AA?5@
CONST	SEGMENT
??_C@_1FK@LDHBEBHF@?$AAF?$AAa?$AAi?$AAl?$AAe?$AAd?$AA?5?$AAt?$AAo?$AA?5?$AAo?$AAp?$AAe?$AAn?$AA?5@ DB 'F'
	DB	00H, 'a', 00H, 'i', 00H, 'l', 00H, 'e', 00H, 'd', 00H, ' ', 00H
	DB	't', 00H, 'o', 00H, ' ', 00H, 'o', 00H, 'p', 00H, 'e', 00H, 'n'
	DB	00H, ' ', 00H, '''', 00H, 'j', 00H, 'a', 00H, 'v', 00H, 'a', 00H
	DB	'w', 00H, '.', 00H, 'e', 00H, 'x', 00H, 'e', 00H, '''', 00H, ' '
	DB	00H, 'p', 00H, 'r', 00H, 'o', 00H, 'c', 00H, 'e', 00H, 's', 00H
	DB	's', 00H, '.', 00H, ' ', 00H, 'E', 00H, 'x', 00H, 'i', 00H, 't'
	DB	00H, 'i', 00H, 'n', 00H, 'g', 00H, '.', 00H, 00H, 00H ; `string'
CONST	ENDS
;	COMDAT ??_C@_1IA@JEPLEHFK@?$AAF?$AAa?$AAi?$AAl?$AAe?$AAd?$AA?5?$AAt?$AAo?$AA?5?$AAf?$AAi?$AAn?$AAd?$AA?5@
CONST	SEGMENT
??_C@_1IA@JEPLEHFK@?$AAF?$AAa?$AAi?$AAl?$AAe?$AAd?$AA?5?$AAt?$AAo?$AA?5?$AAf?$AAi?$AAn?$AAd?$AA?5@ DB 'F'
	DB	00H, 'a', 00H, 'i', 00H, 'l', 00H, 'e', 00H, 'd', 00H, ' ', 00H
	DB	't', 00H, 'o', 00H, ' ', 00H, 'f', 00H, 'i', 00H, 'n', 00H, 'd'
	DB	00H, ' ', 00H, 't', 00H, 'h', 00H, 'e', 00H, ' ', 00H, '''', 00H
	DB	'j', 00H, 'a', 00H, 'v', 00H, 'a', 00H, 'w', 00H, '.', 00H, 'e'
	DB	00H, 'x', 00H, 'e', 00H, '''', 00H, ' ', 00H, 'p', 00H, 'r', 00H
	DB	'o', 00H, 'c', 00H, 'e', 00H, 's', 00H, 's', 00H, '.', 00H, ' '
	DB	00H, 'R', 00H, 'e', 00H, 't', 00H, 'r', 00H, 'y', 00H, 'i', 00H
	DB	'n', 00H, 'g', 00H, ' ', 00H, 'i', 00H, 'n', 00H, ' ', 00H, '1'
	DB	00H, ' ', 00H, 's', 00H, 'e', 00H, 'c', 00H, 'o', 00H, 'n', 00H
	DB	'd', 00H, '.', 00H, '.', 00H, '.', 00H, 00H, 00H ; `string'
CONST	ENDS
;	COMDAT ??_C@_1DG@GOGLACD@?$AAH?$AAo?$AAo?$AAk?$AAi?$AAn?$AAg?$AA?5?$AA?8?$AAj?$AAa?$AAv?$AAa?$AAw?$AA?4@
CONST	SEGMENT
??_C@_1DG@GOGLACD@?$AAH?$AAo?$AAo?$AAk?$AAi?$AAn?$AAg?$AA?5?$AA?8?$AAj?$AAa?$AAv?$AAa?$AAw?$AA?4@ DB 'H'
	DB	00H, 'o', 00H, 'o', 00H, 'k', 00H, 'i', 00H, 'n', 00H, 'g', 00H
	DB	' ', 00H, '''', 00H, 'j', 00H, 'a', 00H, 'v', 00H, 'a', 00H, 'w'
	DB	00H, '.', 00H, 'e', 00H, 'x', 00H, 'e', 00H, '''', 00H, ' ', 00H
	DB	'(', 00H, 'P', 00H, 'I', 00H, 'D', 00H, ':', 00H, ' ', 00H, 00H
	DB	00H						; `string'
CONST	ENDS
;	COMDAT ??_C@_19DOIKHDLM@?$AA?$CJ?$AA?4?$AA?4?$AA?4@
CONST	SEGMENT
??_C@_19DOIKHDLM@?$AA?$CJ?$AA?4?$AA?4?$AA?4@ DB ')', 00H, '.', 00H, '.', 00H
	DB	'.', 00H, 00H, 00H				; `string'
CONST	ENDS
;	COMDAT ??_C@_1BE@GPEDIDBI@?$AAj?$AAa?$AAv?$AAa?$AAw?$AA?4?$AAe?$AAx?$AAe@
CONST	SEGMENT
??_C@_1BE@GPEDIDBI@?$AAj?$AAa?$AAv?$AAa?$AAw?$AA?4?$AAe?$AAx?$AAe@ DB 'j', 00H
	DB	'a', 00H, 'v', 00H, 'a', 00H, 'w', 00H, '.', 00H, 'e', 00H, 'x'
	DB	00H, 'e', 00H, 00H, 00H			; `string'
CONST	ENDS
;	COMDAT ??_C@_0BP@DOPBJDFB@MinHook?5initialization?5failed?4@
CONST	SEGMENT
??_C@_0BP@DOPBJDFB@MinHook?5initialization?5failed?4@ DB 'MinHook initial'
	DB	'ization failed.', 00H			; `string'
CONST	ENDS
;	COMDAT ??_C@_0CF@EMFABHB@Failed?5to?5wait?5for?5the?5remote?5t@
CONST	SEGMENT
??_C@_0CF@EMFABHB@Failed?5to?5wait?5for?5the?5remote?5t@ DB 'Failed to wa'
	DB	'it for the remote thread', 00H		; `string'
CONST	ENDS
;	COMDAT ??_C@_0DH@OOCOEFIK@Failed?5to?5create?5a?5remote?5threa@
CONST	SEGMENT
??_C@_0DH@OOCOEFIK@Failed?5to?5create?5a?5remote?5threa@ DB 'Failed to cr'
	DB	'eate a remote thread in the target process', 00H ; `string'
CONST	ENDS
;	COMDAT ??_C@_0CL@PHPNBKHO@Failed?5to?5write?5code?5to?5the?5tar@
CONST	SEGMENT
??_C@_0CL@PHPNBKHO@Failed?5to?5write?5code?5to?5the?5tar@ DB 'Failed to w'
	DB	'rite code to the target process', 00H	; `string'
CONST	ENDS
;	COMDAT ??_C@_0DA@HKNCCAHG@Failed?5to?5allocate?5memory?5in?5th@
CONST	SEGMENT
??_C@_0DA@HKNCCAHG@Failed?5to?5allocate?5memory?5in?5th@ DB 'Failed to al'
	DB	'locate memory in the target process', 00H	; `string'
CONST	ENDS
;	COMDAT ??_C@_1CK@LHBGCACL@?$AAU?$AAn?$AAa?$AAb?$AAl?$AAe?$AA?5?$AAt?$AAo?$AA?5?$AAf?$AAi?$AAn?$AAd?$AA?5@
CONST	SEGMENT
??_C@_1CK@LHBGCACL@?$AAU?$AAn?$AAa?$AAb?$AAl?$AAe?$AA?5?$AAt?$AAo?$AA?5?$AAf?$AAi?$AAn?$AAd?$AA?5@ DB 'U'
	DB	00H, 'n', 00H, 'a', 00H, 'b', 00H, 'l', 00H, 'e', 00H, ' ', 00H
	DB	't', 00H, 'o', 00H, ' ', 00H, 'f', 00H, 'i', 00H, 'n', 00H, 'd'
	DB	00H, ' ', 00H, 't', 00H, 'h', 00H, 'e', 00H, ' ', 00H, '''', 00H
	DB	00H, 00H					; `string'
CONST	ENDS
;	COMDAT ??_C@_1DA@CEOBPLLB@?$AA?8?$AA?5?$AAp?$AAr?$AAo?$AAc?$AAe?$AAs?$AAs?$AA?4?$AA?5?$AAR?$AAe?$AAt?$AAr@
CONST	SEGMENT
??_C@_1DA@CEOBPLLB@?$AA?8?$AA?5?$AAp?$AAr?$AAo?$AAc?$AAe?$AAs?$AAs?$AA?4?$AA?5?$AAR?$AAe?$AAt?$AAr@ DB ''''
	DB	00H, ' ', 00H, 'p', 00H, 'r', 00H, 'o', 00H, 'c', 00H, 'e', 00H
	DB	's', 00H, 's', 00H, '.', 00H, ' ', 00H, 'R', 00H, 'e', 00H, 't'
	DB	00H, 'r', 00H, 'y', 00H, 'i', 00H, 'n', 00H, 'g', 00H, ' ', 00H
	DB	'i', 00H, 'n', 00H, ' ', 00H, 00H, 00H	; `string'
CONST	ENDS
;	COMDAT ??_C@_1BM@NOKBODGN@?$AA?5?$AAs?$AAe?$AAc?$AAo?$AAn?$AAd?$AA?$CI?$AAs?$AA?$CJ?$AA?4?$AA?4?$AA?4@
CONST	SEGMENT
??_C@_1BM@NOKBODGN@?$AA?5?$AAs?$AAe?$AAc?$AAo?$AAn?$AAd?$AA?$CI?$AAs?$AA?$CJ?$AA?4?$AA?4?$AA?4@ DB ' '
	DB	00H, 's', 00H, 'e', 00H, 'c', 00H, 'o', 00H, 'n', 00H, 'd', 00H
	DB	'(', 00H, 's', 00H, ')', 00H, '.', 00H, '.', 00H, '.', 00H, 00H
	DB	00H						; `string'
CONST	ENDS
;	COMDAT ??_C@_1DK@JAKNBKEM@?$AAH?$AAo?$AAo?$AAk?$AAe?$AAd?$AAL?$AAo?$AAa?$AAd?$AAL?$AAi?$AAb?$AAr?$AAa@
CONST	SEGMENT
??_C@_1DK@JAKNBKEM@?$AAH?$AAo?$AAo?$AAk?$AAe?$AAd?$AAL?$AAo?$AAa?$AAd?$AAL?$AAi?$AAb?$AAr?$AAa@ DB 'H'
	DB	00H, 'o', 00H, 'o', 00H, 'k', 00H, 'e', 00H, 'd', 00H, 'L', 00H
	DB	'o', 00H, 'a', 00H, 'd', 00H, 'L', 00H, 'i', 00H, 'b', 00H, 'r'
	DB	00H, 'a', 00H, 'r', 00H, 'y', 00H, 'W', 00H, ':', 00H, ' ', 00H
	DB	'A', 00H, 'd', 00H, 'd', 00H, 'r', 00H, 'e', 00H, 's', 00H, 's'
	DB	00H, '=', 00H, 00H, 00H			; `string'
CONST	ENDS
;	COMDAT ??_C@_0BN@GADKGODI@HookedLoadLibraryA?3?5Address?$DN@
CONST	SEGMENT
??_C@_0BN@GADKGODI@HookedLoadLibraryA?3?5Address?$DN@ DB 'HookedLoadLibra'
	DB	'ryA: Address=', 00H				; `string'
CONST	ENDS
;	COMDAT ??_C@_0O@CLMNDHMN@?5LibraryName?$DN@
CONST	SEGMENT
??_C@_0O@CLMNDHMN@?5LibraryName?$DN@ DB ' LibraryName=', 00H ; `string'
CONST	ENDS
;	COMDAT ??_C@_0BL@LOLKEBDJ@HookedOpenThread?3?5Address?$DN@
CONST	SEGMENT
??_C@_0BL@LOLKEBDJ@HookedOpenThread?3?5Address?$DN@ DB 'HookedOpenThread:'
	DB	' Address=', 00H				; `string'
CONST	ENDS
;	COMDAT ??_C@_0BA@KLEGACPH@?5DesiredAccess?$DN@
CONST	SEGMENT
??_C@_0BA@KLEGACPH@?5DesiredAccess?$DN@ DB ' DesiredAccess=', 00H ; `string'
CONST	ENDS
;	COMDAT ??_C@_0BA@OBLHBFHG@?5InheritHandle?$DN@
CONST	SEGMENT
??_C@_0BA@OBLHBFHG@?5InheritHandle?$DN@ DB ' InheritHandle=', 00H ; `string'
CONST	ENDS
;	COMDAT ??_C@_0BN@OAEOPBPM@HookedCreateThread?3?5Address?$DN@
CONST	SEGMENT
??_C@_0BN@OAEOPBPM@HookedCreateThread?3?5Address?$DN@ DB 'HookedCreateThr'
	DB	'ead: Address=', 00H				; `string'
CONST	ENDS
;	COMDAT ??_C@_0CC@HENCKCPK@HookedSetWindowsHookExW?3?5Addres@
CONST	SEGMENT
??_C@_0CC@HENCKCPK@HookedSetWindowsHookExW?3?5Addres@ DB 'HookedSetWindow'
	DB	'sHookExW: Address=', 00H			; `string'
CONST	ENDS
;	COMDAT ??_C@_0CC@JHPHOKOG@HookedSetWindowsHookExA?3?5Addres@
CONST	SEGMENT
??_C@_0CC@JHPHOKOG@HookedSetWindowsHookExA?3?5Addres@ DB 'HookedSetWindow'
	DB	'sHookExA: Address=', 00H			; `string'
CONST	ENDS
;	COMDAT ??_C@_08GHGKDLHF@?5IdHook?$DN@
CONST	SEGMENT
??_C@_08GHGKDLHF@?5IdHook?$DN@ DB ' IdHook=', 00H	; `string'
CONST	ENDS
;	COMDAT ??_C@_0P@NKNGOLPE@?5ModuleHandle?$DN@
CONST	SEGMENT
??_C@_0P@NKNGOLPE@?5ModuleHandle?$DN@ DB ' ModuleHandle=', 00H ; `string'
CONST	ENDS
;	COMDAT ??_C@_0CD@EHPPGPBO@HookedCreateRemoteThread?3?5Addre@
CONST	SEGMENT
??_C@_0CD@EHPPGPBO@HookedCreateRemoteThread?3?5Addre@ DB 'HookedCreateRem'
	DB	'oteThread: Address=', 00H			; `string'
CONST	ENDS
;	COMDAT ??_C@_0BA@NOIODOAP@?5ProcessHandle?$DN@
CONST	SEGMENT
??_C@_0BA@NOIODOAP@?5ProcessHandle?$DN@ DB ' ProcessHandle=', 00H ; `string'
CONST	ENDS
;	COMDAT ??_C@_0L@BOGLAAGC@?5ThreadId?$DN@
CONST	SEGMENT
??_C@_0L@BOGLAAGC@?5ThreadId?$DN@ DB ' ThreadId=', 00H	; `string'
CONST	ENDS
;	COMDAT ??_C@_0CI@NGGHBEGF@Exception?5in?5HookedWriteProcess@
CONST	SEGMENT
??_C@_0CI@NGGHBEGF@Exception?5in?5HookedWriteProcess@ DB 'Exception in Ho'
	DB	'okedWriteProcessMemory: ', 00H		; `string'
CONST	ENDS
;	COMDAT ??_C@_08CCCNBELM@?5?5Data?3?5@
CONST	SEGMENT
??_C@_08CCCNBELM@?5?5Data?3?5@ DB '  Data: ', 00H	; `string'
CONST	ENDS
;	COMDAT ??_C@_01CLKCMJKC@?5@
CONST	SEGMENT
??_C@_01CLKCMJKC@?5@ DB ' ', 00H			; `string'
CONST	ENDS
;	COMDAT ??_C@_0CD@JLIEEAJN@HookedWriteProcessMemory?3?5Addre@
CONST	SEGMENT
??_C@_0CD@JLIEEAJN@HookedWriteProcessMemory?3?5Addre@ DB 'HookedWriteProc'
	DB	'essMemory: Address=', 00H			; `string'
CONST	ENDS
;	COMDAT ??_C@_0P@HIDOCKMF@?5BytesWritten?$DN@
CONST	SEGMENT
??_C@_0P@HIDOCKMF@?5BytesWritten?$DN@ DB ' BytesWritten=', 00H ; `string'
CONST	ENDS
;	COMDAT ??_C@_0DN@NLABAAOK@HookedWriteProcessMemory?3?5lpNum@
CONST	SEGMENT
??_C@_0DN@NLABAAOK@HookedWriteProcessMemory?3?5lpNum@ DB 'HookedWriteProc'
	DB	'essMemory: lpNumberOfBytesWritten is nullptr.', 00H ; `string'
CONST	ENDS
;	COMDAT ??_C@_0BP@FPGHOMD@HookedVirtualAllocEx?3?5Address?$DN@
CONST	SEGMENT
??_C@_0BP@FPGHOMD@HookedVirtualAllocEx?3?5Address?$DN@ DB 'HookedVirtualA'
	DB	'llocEx: Address=', 00H			; `string'
CONST	ENDS
;	COMDAT ??_C@_0BN@PKEFEJNJ@HookedVirtualAlloc?3?5Address?$DN@
CONST	SEGMENT
??_C@_0BN@PKEFEJNJ@HookedVirtualAlloc?3?5Address?$DN@ DB 'HookedVirtualAl'
	DB	'loc: Address=', 00H				; `string'
CONST	ENDS
;	COMDAT ??_C@_06JDGAHHPF@?5Size?$DN@
CONST	SEGMENT
??_C@_06JDGAHHPF@?5Size?$DN@ DB ' Size=', 00H		; `string'
CONST	ENDS
;	COMDAT ??_C@_0BB@CPGFOPLP@?5AllocationType?$DN@
CONST	SEGMENT
??_C@_0BB@CPGFOPLP@?5AllocationType?$DN@ DB ' AllocationType=', 00H ; `string'
CONST	ENDS
;	COMDAT ??_C@_0N@DJEDGFBP@?5Protection?$DN@
CONST	SEGMENT
??_C@_0N@DJEDGFBP@?5Protection?$DN@ DB ' Protection=', 00H ; `string'
CONST	ENDS
;	COMDAT ??_C@_1GC@CGGHBNON@?$AAH?$AAo?$AAo?$AAk?$AAi?$AAn?$AAg?$AA?5?$AAt?$AAo?$AA?3?$AA?5?$AAP?$AAr?$AAo@
CONST	SEGMENT
??_C@_1GC@CGGHBNON@?$AAH?$AAo?$AAo?$AAk?$AAi?$AAn?$AAg?$AA?5?$AAt?$AAo?$AA?3?$AA?5?$AAP?$AAr?$AAo@ DB 'H'
	DB	00H, 'o', 00H, 'o', 00H, 'k', 00H, 'i', 00H, 'n', 00H, 'g', 00H
	DB	' ', 00H, 't', 00H, 'o', 00H, ':', 00H, ' ', 00H, 'P', 00H, 'r'
	DB	00H, 'o', 00H, 'c', 00H, 'e', 00H, 's', 00H, 's', 00H, 'I', 00H
	DB	'D', 00H, '=', 00H, '%', 00H, 'u', 00H, ' ', 00H, 'f', 00H, 'r'
	DB	00H, 'o', 00H, 'm', 00H, ':', 00H, ' ', 00H, 'I', 00H, 'm', 00H
	DB	'a', 00H, 'g', 00H, 'e', 00H, 'F', 00H, 'i', 00H, 'l', 00H, 'e'
	DB	00H, 'N', 00H, 'a', 00H, 'm', 00H, 'e', 00H, '=', 00H, '%', 00H
	DB	's', 00H, 0aH, 00H, 00H, 00H			; `string'
CONST	ENDS
;	COMDAT ??_C@_1BE@ELICABCK@?$AA?$DM?$AAu?$AAn?$AAk?$AAn?$AAo?$AAw?$AAn?$AA?$DO@
CONST	SEGMENT
??_C@_1BE@ELICABCK@?$AA?$DM?$AAu?$AAn?$AAk?$AAn?$AAo?$AAw?$AAn?$AA?$DO@ DB '<'
	DB	00H, 'u', 00H, 'n', 00H, 'k', 00H, 'n', 00H, 'o', 00H, 'w', 00H
	DB	'n', 00H, '>', 00H, 00H, 00H			; `string'
CONST	ENDS
;	COMDAT ??_C@_0BC@JPGOJEBA@MinHook?5error?5in?5@
CONST	SEGMENT
??_C@_0BC@JPGOJEBA@MinHook?5error?5in?5@ DB 'MinHook error in ', 00H ; `string'
CONST	ENDS
;	COMDAT ??_C@_08EPJLHIJG@bad?5cast@
CONST	SEGMENT
??_C@_08EPJLHIJG@bad?5cast@ DB 'bad cast', 00H		; `string'
CONST	ENDS
;	COMDAT ??_C@_02LMMGGCAJ@?3?5@
CONST	SEGMENT
??_C@_02LMMGGCAJ@?3?5@ DB ': ', 00H			; `string'
CONST	ENDS
;	COMDAT ??_C@_0BA@JFNIOLAK@string?5too?5long@
CONST	SEGMENT
??_C@_0BA@JFNIOLAK@string?5too?5long@ DB 'string too long', 00H ; `string'
CONST	ENDS
;	COMDAT ??_C@_0BF@KINCDENJ@bad?5array?5new?5length@
CONST	SEGMENT
??_C@_0BF@KINCDENJ@bad?5array?5new?5length@ DB 'bad array new length', 00H ; `string'
CONST	ENDS
;	COMDAT ??_C@_0BC@EOODALEL@Unknown?5exception@
CONST	SEGMENT
??_C@_0BC@EOODALEL@Unknown?5exception@ DB 'Unknown exception', 00H ; `string'
CONST	ENDS
PUBLIC	??_E?$basic_stringstream@DU?$char_traits@D@std@@V?$allocator@D@2@@std@@$4PPPPPPPM@A@EAAPEAXI@Z ; std::basic_stringstream<char,std::char_traits<char>,std::allocator<char> >::`vector deleting destructor'
PUBLIC	??$?0N$0A@@?$duration@NU?$ratio@$00$0DLJKMKAA@@std@@@chrono@std@@QEAA@AEBN@Z ; std::chrono::duration<double,std::ratio<1,1000000000> >::duration<double,std::ratio<1,1000000000> ><double,0>
PUBLIC	??$duration_cast@V?$duration@NU?$ratio@$00$0DLJKMKAA@@std@@@chrono@std@@_JU?$ratio@$00$0DLJKMKAA@@3@$0A@@chrono@std@@YA?AV?$duration@NU?$ratio@$00$0DLJKMKAA@@std@@@01@AEBV?$duration@_JU?$ratio@$00$0DLJKMKAA@@std@@@01@@Z ; std::chrono::duration_cast<std::chrono::duration<double,std::ratio<1,1000000000> >,__int64,std::ratio<1,1000000000>,0>
PUBLIC	??$duration_cast@V?$duration@NU?$ratio@$00$0DLJKMKAA@@std@@@chrono@std@@NU?$ratio@$00$00@3@$0A@@chrono@std@@YA?AV?$duration@NU?$ratio@$00$0DLJKMKAA@@std@@@01@AEBV?$duration@NU?$ratio@$00$00@std@@@01@@Z ; std::chrono::duration_cast<std::chrono::duration<double,std::ratio<1,1000000000> >,double,std::ratio<1,1>,0>
PUBLIC	??$duration_cast@V?$duration@_JU?$ratio@$00$0DLJKMKAA@@std@@@chrono@std@@_JU?$ratio@$00$0JIJGIA@@3@$0A@@chrono@std@@YA?AV?$duration@_JU?$ratio@$00$0DLJKMKAA@@std@@@01@AEBV?$duration@_JU?$ratio@$00$0JIJGIA@@std@@@01@@Z ; std::chrono::duration_cast<std::chrono::duration<__int64,std::ratio<1,1000000000> >,__int64,std::ratio<1,10000000>,0>
PUBLIC	??$duration_cast@V?$duration@_JU?$ratio@$00$0DLJKMKAA@@std@@@chrono@std@@_JU?$ratio@$00$0DLJKMKAA@@3@$0A@@chrono@std@@YA?AV?$duration@_JU?$ratio@$00$0DLJKMKAA@@std@@@01@AEBV201@@Z ; std::chrono::duration_cast<std::chrono::duration<__int64,std::ratio<1,1000000000> >,__int64,std::ratio<1,1000000000>,0>
PUBLIC	??$?0_JU?$ratio@$00$0DLJKMKAA@@std@@$0A@@?$duration@NU?$ratio@$00$0DLJKMKAA@@std@@@chrono@std@@QEAA@AEBV?$duration@_JU?$ratio@$00$0DLJKMKAA@@std@@@12@@Z ; std::chrono::duration<double,std::ratio<1,1000000000> >::duration<double,std::ratio<1,1000000000> ><__int64,std::ratio<1,1000000000>,0>
PUBLIC	??$?0NU?$ratio@$00$00@std@@$0A@@?$duration@NU?$ratio@$00$0DLJKMKAA@@std@@@chrono@std@@QEAA@AEBV?$duration@NU?$ratio@$00$00@std@@@12@@Z ; std::chrono::duration<double,std::ratio<1,1000000000> >::duration<double,std::ratio<1,1000000000> ><double,std::ratio<1,1>,0>
PUBLIC	??$?0_JU?$ratio@$00$0JIJGIA@@std@@$0A@@?$duration@_JU?$ratio@$00$0DLJKMKAA@@std@@@chrono@std@@QEAA@AEBV?$duration@_JU?$ratio@$00$0JIJGIA@@std@@@12@@Z ; std::chrono::duration<__int64,std::ratio<1,1000000000> >::duration<__int64,std::ratio<1,1000000000> ><__int64,std::ratio<1,10000000>,0>
PUBLIC	??$?G_JU?$ratio@$00$0DLJKMKAA@@std@@_JU01@@chrono@std@@YA?AV?$duration@_JU?$ratio@$00$0DLJKMKAA@@std@@@01@AEBV201@0@Z ; std::chrono::operator-<__int64,std::ratio<1,1000000000>,__int64,std::ratio<1,1000000000> >
PUBLIC	??$forward@AEAPEAV_Facet_base@std@@@std@@YAAEAPEAV_Facet_base@0@AEAPEAV10@@Z ; std::forward<std::_Facet_base * &>
PUBLIC	??Z?$duration@_JU?$ratio@$00$0DLJKMKAA@@std@@@chrono@std@@QEAAAEAV012@AEBV012@@Z ; std::chrono::duration<__int64,std::ratio<1,1000000000> >::operator-=
PUBLIC	?count@?$duration@NU?$ratio@$00$0DLJKMKAA@@std@@@chrono@std@@QEBANXZ ; std::chrono::duration<double,std::ratio<1,1000000000> >::count
PUBLIC	??$_Allocate_manually_vector_aligned@U_Default_allocate_traits@std@@@std@@YAPEAX_K@Z ; std::_Allocate_manually_vector_aligned<std::_Default_allocate_traits>
PUBLIC	??$construct_at@PEADAEBQEAD$0A@@std@@YAPEAPEADQEAPEADAEBQEAD@Z ; std::construct_at<char *,char * const &,0>
PUBLIC	??$forward@AEBQEAD@std@@YAAEBQEADAEBQEAD@Z	; std::forward<char * const &>
PUBLIC	??$construct_at@D$$V$0A@@std@@YAPEADQEAD@Z	; std::construct_at<char,0>
PUBLIC	??$?__MNU?$ratio@$00$00@std@@_JU?$ratio@$00$0DLJKMKAA@@1@@chrono@std@@YA?A_PAEBV?$duration@NU?$ratio@$00$00@std@@@01@AEBV?$duration@_JU?$ratio@$00$0DLJKMKAA@@std@@@01@@Z ; std::chrono::operator<=><double,std::ratio<1,1>,__int64,std::ratio<1,1000000000> >
PUBLIC	??$_To_timespec64_sys_10_day_clamped@_JU?$ratio@$00$0DLJKMKAA@@std@@@std@@YA_NAEAU_timespec64@@AEBV?$duration@_JU?$ratio@$00$0DLJKMKAA@@std@@@chrono@0@@Z ; std::_To_timespec64_sys_10_day_clamped<__int64,std::ratio<1,1000000000> >
PUBLIC	??$?GUsteady_clock@chrono@std@@V?$duration@_JU?$ratio@$00$0DLJKMKAA@@std@@@12@V312@@chrono@std@@YA?AV?$duration@_JU?$ratio@$00$0DLJKMKAA@@std@@@01@AEBV?$time_point@Usteady_clock@chrono@std@@V?$duration@_JU?$ratio@$00$0DLJKMKAA@@std@@@23@@01@0@Z ; std::chrono::operator-<std::chrono::steady_clock,std::chrono::duration<__int64,std::ratio<1,1000000000> >,std::chrono::duration<__int64,std::ratio<1,1000000000> > >
PUBLIC	??$?G_JU?$ratio@$00$0DLJKMKAA@@std@@_JU?$ratio@$00$00@1@@chrono@std@@YA?AV?$duration@_JU?$ratio@$00$0DLJKMKAA@@std@@@01@AEBV201@AEBV?$duration@_JU?$ratio@$00$00@std@@@01@@Z ; std::chrono::operator-<__int64,std::ratio<1,1000000000>,__int64,std::ratio<1,1> >
PUBLIC	??$?0AEAPEAV_Facet_base@std@@@?$_Compressed_pair@U?$default_delete@V_Facet_base@std@@@std@@PEAV_Facet_base@2@$00@std@@QEAA@U_Zero_then_variadic_args_t@1@AEAPEAV_Facet_base@1@@Z ; std::_Compressed_pair<std::default_delete<std::_Facet_base>,std::_Facet_base *,1>::_Compressed_pair<std::default_delete<std::_Facet_base>,std::_Facet_base *,1><std::_Facet_base * &>
PUBLIC	??$duration_cast@V?$duration@_JU?$ratio@$00$0DLJKMKAA@@std@@@chrono@std@@_JU?$ratio@$00$00@3@$0A@@chrono@std@@YA?AV?$duration@_JU?$ratio@$00$0DLJKMKAA@@std@@@01@AEBV?$duration@_JU?$ratio@$00$00@std@@@01@@Z ; std::chrono::duration_cast<std::chrono::duration<__int64,std::ratio<1,1000000000> >,__int64,std::ratio<1,1>,0>
PUBLIC	??$_Allocate@$0BA@U_Default_allocate_traits@std@@$0A@@std@@YAPEAX_K@Z ; std::_Allocate<16,std::_Default_allocate_traits,0>
PUBLIC	??$_Get_size_of_n@$00@std@@YA_K_K@Z		; std::_Get_size_of_n<1>
PUBLIC	??$exchange@PEAV_Facet_base@std@@$$T@std@@YAPEAV_Facet_base@0@AEAPEAV10@$$QEA$$T@Z ; std::exchange<std::_Facet_base *,std::nullptr_t>
PUBLIC	??$forward@AEBV?$allocator@D@std@@@std@@YAAEBV?$allocator@D@0@AEBV10@@Z ; std::forward<std::allocator<char> const &>
PUBLIC	??$construct_at@PEADAEAPEAD$0A@@std@@YAPEAPEADQEAPEADAEAPEAD@Z ; std::construct_at<char *,char * &,0>
PUBLIC	??$forward@AEAPEAD@std@@YAAEAPEADAEAPEAD@Z	; std::forward<char * &>
PUBLIC	??$addressof@PEAD@std@@YAPEAPEADAEAPEAD@Z	; std::addressof<char *>
PUBLIC	??$_Construct_in_place@PEADAEBQEAD@std@@YAXAEAPEADAEBQEAD@Z ; std::_Construct_in_place<char *,char * const &>
PUBLIC	??$_Allocate_for_capacity@$0A@@?$basic_string@DU?$char_traits@D@std@@V?$allocator@D@2@@std@@CAPEADAEAV?$allocator@D@1@AEA_K@Z ; std::basic_string<char,std::char_traits<char>,std::allocator<char> >::_Allocate_for_capacity<0>
PUBLIC	??$forward@V?$allocator@D@std@@@std@@YA$$QEAV?$allocator@D@0@AEAV10@@Z ; std::forward<std::allocator<char> >
PUBLIC	??$sleep_until@Usteady_clock@chrono@std@@V?$duration@_JU?$ratio@$00$0DLJKMKAA@@std@@@23@@this_thread@std@@YAXAEBV?$time_point@Usteady_clock@chrono@std@@V?$duration@_JU?$ratio@$00$0DLJKMKAA@@std@@@23@@chrono@1@@Z ; std::this_thread::sleep_until<std::chrono::steady_clock,std::chrono::duration<__int64,std::ratio<1,1000000000> > >
PUBLIC	??$?GUsteady_clock@chrono@std@@V?$duration@_JU?$ratio@$00$0DLJKMKAA@@std@@@12@_JU?$ratio@$00$00@2@@chrono@std@@YA?AV?$time_point@Usteady_clock@chrono@std@@V?$duration@_JU?$ratio@$00$0DLJKMKAA@@std@@@23@@01@AEBV201@AEBV?$duration@_JU?$ratio@$00$00@std@@@01@@Z ; std::chrono::operator-<std::chrono::steady_clock,std::chrono::duration<__int64,std::ratio<1,1000000000> >,__int64,std::ratio<1,1> >
PUBLIC	??$_Insert_string@DU?$char_traits@D@std@@_K@std@@YAAEAV?$basic_ostream@DU?$char_traits@D@std@@@0@AEAV10@QEBD_K@Z ; std::_Insert_string<char,std::char_traits<char>,unsigned __int64>
PUBLIC	??$?0U?$default_delete@V_Facet_base@std@@@std@@$0A@@?$unique_ptr@V_Facet_base@std@@U?$default_delete@V_Facet_base@std@@@2@@std@@QEAA@PEAV_Facet_base@1@@Z ; std::unique_ptr<std::_Facet_base,std::default_delete<std::_Facet_base> >::unique_ptr<std::_Facet_base,std::default_delete<std::_Facet_base> ><std::default_delete<std::_Facet_base>,0>
PUBLIC	??$forward@AEBD@std@@YAAEBDAEBD@Z		; std::forward<char const &>
PUBLIC	??$?0_JU?$ratio@$00$00@std@@$0A@@?$duration@_JU?$ratio@$00$0DLJKMKAA@@std@@@chrono@std@@QEAA@AEBV?$duration@_JU?$ratio@$00$00@std@@@12@@Z ; std::chrono::duration<__int64,std::ratio<1,1000000000> >::duration<__int64,std::ratio<1,1000000000> ><__int64,std::ratio<1,1>,0>
PUBLIC	?max_size@?$_Default_allocator_traits@V?$allocator@D@std@@@std@@SA_KAEBV?$allocator@D@2@@Z ; std::_Default_allocator_traits<std::allocator<char> >::max_size
PUBLIC	??0_Bxty@?$_String_val@U?$_Simple_types@D@std@@@std@@QEAA@XZ ; std::_String_val<std::_Simple_types<char> >::_Bxty::_Bxty
PUBLIC	?_Calculate_growth@?$basic_string@DU?$char_traits@D@std@@V?$allocator@D@2@@std@@CA_K_K00@Z ; std::basic_string<char,std::char_traits<char>,std::allocator<char> >::_Calculate_growth
PUBLIC	??Y?$duration@_JU?$ratio@$00$0DLJKMKAA@@std@@@chrono@std@@QEAAAEAV012@AEBV012@@Z ; std::chrono::duration<__int64,std::ratio<1,1000000000> >::operator+=
PUBLIC	??R?$default_delete@V_Facet_base@std@@@std@@QEBAXPEAV_Facet_base@1@@Z ; std::default_delete<std::_Facet_base>::operator()
PUBLIC	?_Get_first@?$_Compressed_pair@U?$default_delete@V_Facet_base@std@@@std@@PEAV_Facet_base@2@$00@std@@QEAAAEAU?$default_delete@V_Facet_base@std@@@2@XZ ; std::_Compressed_pair<std::default_delete<std::_Facet_base>,std::_Facet_base *,1>::_Get_first
PUBLIC	?allocate@?$allocator@D@std@@QEAAPEAD_K@Z	; std::allocator<char>::allocate
PUBLIC	??0?$_String_val@U?$_Simple_types@D@std@@@std@@QEAA@XZ ; std::_String_val<std::_Simple_types<char> >::_String_val<std::_Simple_types<char> >
PUBLIC	?data@?$basic_string@DU?$char_traits@D@std@@V?$allocator@D@2@@std@@QEBAPEBDXZ ; std::basic_string<char,std::char_traits<char>,std::allocator<char> >::data
PUBLIC	?max_size@?$basic_string@DU?$char_traits@D@std@@V?$allocator@D@2@@std@@QEBA_KXZ ; std::basic_string<char,std::char_traits<char>,std::allocator<char> >::max_size
PUBLIC	?_Calculate_growth@?$basic_string@DU?$char_traits@D@std@@V?$allocator@D@2@@std@@AEBA_K_K@Z ; std::basic_string<char,std::char_traits<char>,std::allocator<char> >::_Calculate_growth
PUBLIC	?count@?$duration@_JU?$ratio@$00$0JIJGIA@@std@@@chrono@std@@QEBA_JXZ ; std::chrono::duration<__int64,std::ratio<1,10000000> >::count
PUBLIC	?time_since_epoch@?$time_point@Usteady_clock@chrono@std@@V?$duration@_JU?$ratio@$00$0DLJKMKAA@@std@@@23@@chrono@std@@QEBA?AV?$duration@_JU?$ratio@$00$0DLJKMKAA@@std@@@23@XZ ; std::chrono::time_point<std::chrono::steady_clock,std::chrono::duration<__int64,std::ratio<1,1000000000> > >::time_since_epoch
PUBLIC	??Y?$time_point@Usteady_clock@chrono@std@@V?$duration@_JU?$ratio@$00$0DLJKMKAA@@std@@@23@@chrono@std@@QEAAAEAV012@AEBV?$duration@_JU?$ratio@$00$0DLJKMKAA@@std@@@12@@Z ; std::chrono::time_point<std::chrono::steady_clock,std::chrono::duration<__int64,std::ratio<1,1000000000> > >::operator+=
PUBLIC	??0?$_Fillobj@D@std@@QEAA@D@Z			; std::_Fillobj<char>::_Fillobj<char>
PUBLIC	??1?$unique_ptr@V_Facet_base@std@@U?$default_delete@V_Facet_base@std@@@2@@std@@QEAA@XZ ; std::unique_ptr<std::_Facet_base,std::default_delete<std::_Facet_base> >::~unique_ptr<std::_Facet_base,std::default_delete<std::_Facet_base> >
PUBLIC	?release@?$unique_ptr@V_Facet_base@std@@U?$default_delete@V_Facet_base@std@@@2@@std@@QEAAPEAV_Facet_base@2@XZ ; std::unique_ptr<std::_Facet_base,std::default_delete<std::_Facet_base> >::release
PUBLIC	?__autoclassinit2@?$unique_ptr@V_Facet_base@std@@U?$default_delete@V_Facet_base@std@@@2@@std@@QEAAX_K@Z ; std::unique_ptr<std::_Facet_base,std::default_delete<std::_Facet_base> >::__autoclassinit2
PUBLIC	??$construct_at@DAEBD$0A@@std@@YAPEADQEADAEBD@Z	; std::construct_at<char,char const &,0>
PUBLIC	??$?0AEBV?$allocator@D@std@@$$V@?$_Compressed_pair@V?$allocator@D@std@@V?$_String_val@U?$_Simple_types@D@std@@@2@$00@std@@QEAA@U_One_then_variadic_args_t@1@AEBV?$allocator@D@1@@Z ; std::_Compressed_pair<std::allocator<char>,std::_String_val<std::_Simple_types<char> >,1>::_Compressed_pair<std::allocator<char>,std::_String_val<std::_Simple_types<char> >,1><std::allocator<char> const &>
PUBLIC	??$addressof@$$CBV?$_String_val@U?$_Simple_types@D@std@@@std@@@std@@YAPEBV?$_String_val@U?$_Simple_types@D@std@@@0@AEBV10@@Z ; std::addressof<std::_String_val<std::_Simple_types<char> > const >
PUBLIC	??$_Reallocate_for@V<lambda_1>@?1??assign@?$basic_string@DU?$char_traits@D@std@@V?$allocator@D@2@@std@@QEAAAEAV34@QEBD_K@Z@PEBD@?$basic_string@DU?$char_traits@D@std@@V?$allocator@D@2@@std@@AEAAAEAV01@_KV<lambda_1>@?1??assign@01@QEAAAEAV01@QEBD0@Z@PEBD@Z ; std::basic_string<char,std::char_traits<char>,std::allocator<char> >::_Reallocate_for<`std::basic_string<char,std::char_traits<char>,std::allocator<char> >::assign'::`2'::<lambda_1>,char const *>
PUBLIC	??$addressof@V?$_String_val@U?$_Simple_types@D@std@@@std@@@std@@YAPEAV?$_String_val@U?$_Simple_types@D@std@@@0@AEAV10@@Z ; std::addressof<std::_String_val<std::_Simple_types<char> > >
PUBLIC	??$_Deallocate@$0BA@$0A@@std@@YAXPEAX_K@Z	; std::_Deallocate<16,0>
PUBLIC	??$_Construct_in_place@PEADAEAPEAD@std@@YAXAEAPEAD0@Z ; std::_Construct_in_place<char *,char * &>
PUBLIC	??$_Destroy_in_place@PEAD@std@@YAXAEAPEAD@Z	; std::_Destroy_in_place<char *>
PUBLIC	??$addressof@D@std@@YAPEADAEAD@Z		; std::addressof<char>
PUBLIC	??$_Construct@$00PEBD@?$basic_string@DU?$char_traits@D@std@@V?$allocator@D@2@@std@@AEAAXQEBD_K@Z ; std::basic_string<char,std::char_traits<char>,std::allocator<char> >::_Construct<1,char const *>
PUBLIC	??$?0$$V@?$_Compressed_pair@V?$allocator@D@std@@V?$_String_val@U?$_Simple_types@D@std@@@2@$00@std@@QEAA@U_Zero_then_variadic_args_t@1@@Z ; std::_Compressed_pair<std::allocator<char>,std::_String_val<std::_Simple_types<char> >,1>::_Compressed_pair<std::allocator<char>,std::_String_val<std::_Simple_types<char> >,1><>
PUBLIC	??$?0V?$allocator@D@std@@$$V@?$_Compressed_pair@V?$allocator@D@std@@V?$_String_val@U?$_Simple_types@D@std@@@2@$00@std@@QEAA@U_One_then_variadic_args_t@1@$$QEAV?$allocator@D@1@@Z ; std::_Compressed_pair<std::allocator<char>,std::_String_val<std::_Simple_types<char> >,1>::_Compressed_pair<std::allocator<char>,std::_String_val<std::_Simple_types<char> >,1><std::allocator<char> >
PUBLIC	??$move@AEAV?$allocator@D@std@@@std@@YA$$QEAV?$allocator@D@0@AEAV10@@Z ; std::move<std::allocator<char> &>
PUBLIC	??$_Convert_size@_K_K@std@@YA_K_K@Z		; std::_Convert_size<unsigned __int64,unsigned __int64>
PUBLIC	??$min@_K@std@@YAAEB_KAEB_K0@Z			; std::min<unsigned __int64>
PUBLIC	??$use_facet@V?$ctype@_W@std@@@std@@YAAEBV?$ctype@_W@0@AEBVlocale@0@@Z ; std::use_facet<std::ctype<wchar_t> >
PUBLIC	??$addressof@V?$basic_stringbuf@DU?$char_traits@D@std@@V?$allocator@D@2@@std@@@std@@YAPEAV?$basic_stringbuf@DU?$char_traits@D@std@@V?$allocator@D@2@@0@AEAV10@@Z ; std::addressof<std::basic_stringbuf<char,std::char_traits<char>,std::allocator<char> > >
PUBLIC	??$_Unfancy@D@std@@YAPEADPEAD@Z			; std::_Unfancy<char>
PUBLIC	??$_Allocate_at_least_helper@V?$allocator@D@std@@@std@@YAPEADAEAV?$allocator@D@0@AEA_K@Z ; std::_Allocate_at_least_helper<std::allocator<char> >
PUBLIC	??$max@PEAD@std@@YAAEBQEADAEBQEAD0@Z		; std::max<char *>
PUBLIC	??$?__MUsteady_clock@chrono@std@@V?$duration@_JU?$ratio@$00$0DLJKMKAA@@std@@@12@V312@@chrono@std@@YA?A_PAEBV?$time_point@Usteady_clock@chrono@std@@V?$duration@_JU?$ratio@$00$0DLJKMKAA@@std@@@23@@01@0@Z ; std::chrono::operator<=><std::chrono::steady_clock,std::chrono::duration<__int64,std::ratio<1,1000000000> >,std::chrono::duration<__int64,std::ratio<1,1000000000> > >
PUBLIC	??$?__M_JU?$ratio@$00$0DLJKMKAA@@std@@_JU01@@chrono@std@@YA?A_PAEBV?$duration@_JU?$ratio@$00$0DLJKMKAA@@std@@@01@0@Z ; std::chrono::operator<=><__int64,std::ratio<1,1000000000>,__int64,std::ratio<1,1000000000> >
PUBLIC	??$?__M_JU?$ratio@$00$00@std@@_JU01@@chrono@std@@YA?A_PAEBV?$duration@_JU?$ratio@$00$00@std@@@01@0@Z ; std::chrono::operator<=><__int64,std::ratio<1,1>,__int64,std::ratio<1,1> >
PUBLIC	??$_To_absolute_time@_JU?$ratio@$00$00@std@@@std@@YA?A_PAEBV?$duration@_JU?$ratio@$00$00@std@@@chrono@0@@Z ; std::_To_absolute_time<__int64,std::ratio<1,1> >
PUBLIC	??$sleep_for@_JU?$ratio@$00$00@std@@@this_thread@std@@YAXAEBV?$duration@_JU?$ratio@$00$00@std@@@chrono@1@@Z ; std::this_thread::sleep_for<__int64,std::ratio<1,1> >
PUBLIC	??$?0H$0A@@?$duration@_JU?$ratio@$00$00@std@@@chrono@std@@QEAA@AEBH@Z ; std::chrono::duration<__int64,std::ratio<1,1> >::duration<__int64,std::ratio<1,1> ><int,0>
PUBLIC	??$endl@_WU?$char_traits@_W@std@@@std@@YAAEAV?$basic_ostream@_WU?$char_traits@_W@std@@@0@AEAV10@@Z ; std::endl<wchar_t,std::char_traits<wchar_t> >
PUBLIC	??$?6_WU?$char_traits@_W@std@@@std@@YAAEAV?$basic_ostream@_WU?$char_traits@_W@std@@@0@AEAV10@PEBD@Z ; std::operator<<<wchar_t,std::char_traits<wchar_t> >
PUBLIC	??$?6_WU?$char_traits@_W@std@@@std@@YAAEAV?$basic_ostream@_WU?$char_traits@_W@std@@@0@AEAV10@PEB_W@Z ; std::operator<<<wchar_t,std::char_traits<wchar_t> >
PUBLIC	??$?6DU?$char_traits@D@std@@@std@@YAAEAV?$basic_ostream@DU?$char_traits@D@std@@@0@AEAV10@AEBU?$_Smanip@_J@0@@Z ; std::operator<<<char,std::char_traits<char> >
PUBLIC	??$?6DU?$char_traits@D@std@@@std@@YAAEAV?$basic_ostream@DU?$char_traits@D@std@@@0@AEAV10@AEBU?$_Fillobj@D@0@@Z ; std::operator<<<char,std::char_traits<char> >
PUBLIC	??$setfill@D@std@@YA?AU?$_Fillobj@D@0@D@Z	; std::setfill<char>
PUBLIC	??$endl@DU?$char_traits@D@std@@@std@@YAAEAV?$basic_ostream@DU?$char_traits@D@std@@@0@AEAV10@@Z ; std::endl<char,std::char_traits<char> >
PUBLIC	??$?6DU?$char_traits@D@std@@V?$allocator@D@1@@std@@YAAEAV?$basic_ostream@DU?$char_traits@D@std@@@0@AEAV10@AEBV?$basic_string@DU?$char_traits@D@std@@V?$allocator@D@2@@0@@Z ; std::operator<<<char,std::char_traits<char>,std::allocator<char> >
PUBLIC	??$?6U?$char_traits@D@std@@@std@@YAAEAV?$basic_ostream@DU?$char_traits@D@std@@@0@AEAV10@PEBD@Z ; std::operator<<<std::char_traits<char> >
PUBLIC	??$duration_cast@V?$duration@_JU?$ratio@$00$00@std@@@chrono@std@@_JU?$ratio@$00$0DLJKMKAA@@3@$0A@@chrono@std@@YA?AV?$duration@_JU?$ratio@$00$00@std@@@01@AEBV?$duration@_JU?$ratio@$00$0DLJKMKAA@@std@@@01@@Z ; std::chrono::duration_cast<std::chrono::duration<__int64,std::ratio<1,1> >,__int64,std::ratio<1,1000000000>,0>
PUBLIC	??$?0_J$0A@@?$duration@_JU?$ratio@$00$00@std@@@chrono@std@@QEAA@AEB_J@Z ; std::chrono::duration<__int64,std::ratio<1,1> >::duration<__int64,std::ratio<1,1> ><__int64,0>
PUBLIC	??$?0_J$0A@@?$duration@_JU?$ratio@$00$0JIJGIA@@std@@@chrono@std@@QEAA@AEB_J@Z ; std::chrono::duration<__int64,std::ratio<1,10000000> >::duration<__int64,std::ratio<1,10000000> ><__int64,0>
PUBLIC	?assign@?$_Char_traits@DH@std@@SAXAEADAEBD@Z	; std::_Char_traits<char,int>::assign
PUBLIC	?length@?$_WChar_traits@_W@std@@SA_KPEB_W@Z	; std::_WChar_traits<wchar_t>::length
PUBLIC	?move@?$_Char_traits@DH@std@@SAPEADQEADQEBD_K@Z	; std::_Char_traits<char,int>::move
PUBLIC	?assign@?$_Narrow_char_traits@DH@std@@SAXAEADAEBD@Z ; std::_Narrow_char_traits<char,int>::assign
PUBLIC	??0?$allocator@D@std@@QEAA@XZ			; std::allocator<char>::allocator<char>
PUBLIC	?_Activate_SSO_buffer@?$_String_val@U?$_Simple_types@D@std@@@std@@QEAAXXZ ; std::_String_val<std::_Simple_types<char> >::_Activate_SSO_buffer
PUBLIC	??0?$basic_string@DU?$char_traits@D@std@@V?$allocator@D@2@@std@@QEAA@AEBV?$allocator@D@1@@Z ; std::basic_string<char,std::char_traits<char>,std::allocator<char> >::basic_string<char,std::char_traits<char>,std::allocator<char> >
PUBLIC	?_Deallocate_for_capacity@?$basic_string@DU?$char_traits@D@std@@V?$allocator@D@2@@std@@CAXAEAV?$allocator@D@2@QEAD_K@Z ; std::basic_string<char,std::char_traits<char>,std::allocator<char> >::_Deallocate_for_capacity
PUBLIC	?_Memcpy_val_from@?$basic_string@DU?$char_traits@D@std@@V?$allocator@D@2@@std@@AEAAXAEBV12@@Z ; std::basic_string<char,std::char_traits<char>,std::allocator<char> >::_Memcpy_val_from
PUBLIC	??R<lambda_1>@?1??assign@?$basic_string@DU?$char_traits@D@std@@V?$allocator@D@2@@std@@QEAAAEAV23@QEBD_K@Z@QEBA@QEAD10@Z ; `std::basic_string<char,std::char_traits<char>,std::allocator<char> >::assign'::`2'::<lambda_1>::operator()
PUBLIC	?assign@?$basic_string@DU?$char_traits@D@std@@V?$allocator@D@2@@std@@QEAAAEAV12@QEBD_K@Z ; std::basic_string<char,std::char_traits<char>,std::allocator<char> >::assign
PUBLIC	?_Swap_proxy_and_iterators@?$basic_string@DU?$char_traits@D@std@@V?$allocator@D@2@@std@@AEAAXAEAV12@@Z ; std::basic_string<char,std::char_traits<char>,std::allocator<char> >::_Swap_proxy_and_iterators
PUBLIC	?_Get_first@?$_Compressed_pair@V?$allocator@D@std@@V?$_String_val@U?$_Simple_types@D@std@@@2@$00@std@@QEAAAEAV?$allocator@D@2@XZ ; std::_Compressed_pair<std::allocator<char>,std::_String_val<std::_Simple_types<char> >,1>::_Get_first
PUBLIC	?_Get_first@?$_Compressed_pair@V?$allocator@D@std@@V?$_String_val@U?$_Simple_types@D@std@@@2@$00@std@@QEBAAEBV?$allocator@D@2@XZ ; std::_Compressed_pair<std::allocator<char>,std::_String_val<std::_Simple_types<char> >,1>::_Get_first
PUBLIC	?_Get_buffer_view@?$basic_stringbuf@DU?$char_traits@D@std@@V?$allocator@D@2@@std@@QEBA?AU_Buffer_view@12@XZ ; std::basic_stringbuf<char,std::char_traits<char>,std::allocator<char> >::_Get_buffer_view
PUBLIC	?_Getstate@?$basic_stringbuf@DU?$char_traits@D@std@@V?$allocator@D@2@@std@@CAHH@Z ; std::basic_stringbuf<char,std::char_traits<char>,std::allocator<char> >::_Getstate
PUBLIC	??0_Sentry_base@?$basic_ostream@_WU?$char_traits@_W@std@@@std@@QEAA@AEAV12@@Z ; std::basic_ostream<wchar_t,std::char_traits<wchar_t> >::_Sentry_base::_Sentry_base
PUBLIC	??1_Sentry_base@?$basic_ostream@_WU?$char_traits@_W@std@@@std@@QEAA@XZ ; std::basic_ostream<wchar_t,std::char_traits<wchar_t> >::_Sentry_base::~_Sentry_base
PUBLIC	??0_Sentry_base@?$basic_ostream@DU?$char_traits@D@std@@@std@@QEAA@AEAV12@@Z ; std::basic_ostream<char,std::char_traits<char> >::_Sentry_base::_Sentry_base
PUBLIC	??1_Sentry_base@?$basic_ostream@DU?$char_traits@D@std@@@std@@QEAA@XZ ; std::basic_ostream<char,std::char_traits<char> >::_Sentry_base::~_Sentry_base
PUBLIC	?eq_int_type@?$_WChar_traits@_W@std@@SA_NGG@Z	; std::_WChar_traits<wchar_t>::eq_int_type
PUBLIC	?eof@?$_WChar_traits@_W@std@@SAGXZ		; std::_WChar_traits<wchar_t>::eof
PUBLIC	?copy@?$_Char_traits@DH@std@@SAPEADQEADQEBD_K@Z	; std::_Char_traits<char,int>::copy
PUBLIC	?length@?$_Narrow_char_traits@DH@std@@SA_KQEBD@Z ; std::_Narrow_char_traits<char,int>::length
PUBLIC	?eq@?$_Narrow_char_traits@DH@std@@SA_NDD@Z	; std::_Narrow_char_traits<char,int>::eq
PUBLIC	?to_char_type@?$_Narrow_char_traits@DH@std@@SADH@Z ; std::_Narrow_char_traits<char,int>::to_char_type
PUBLIC	?to_int_type@?$_Narrow_char_traits@DH@std@@SAHD@Z ; std::_Narrow_char_traits<char,int>::to_int_type
PUBLIC	?eq_int_type@?$_Narrow_char_traits@DH@std@@SA_NHH@Z ; std::_Narrow_char_traits<char,int>::eq_int_type
PUBLIC	?not_eof@?$_Narrow_char_traits@DH@std@@SAHH@Z	; std::_Narrow_char_traits<char,int>::not_eof
PUBLIC	?eof@?$_Narrow_char_traits@DH@std@@SAHXZ	; std::_Narrow_char_traits<char,int>::eof
PUBLIC	??$max@_K@std@@YAAEB_KAEB_K0@Z			; std::max<unsigned __int64>
PUBLIC	?deallocate@?$allocator@D@std@@QEAAXQEAD_K@Z	; std::allocator<char>::deallocate
PUBLIC	?_Myptr@?$_String_val@U?$_Simple_types@D@std@@@std@@QEBAPEBDXZ ; std::_String_val<std::_Simple_types<char> >::_Myptr
PUBLIC	??1_Bxty@?$_String_val@U?$_Simple_types@D@std@@@std@@QEAA@XZ ; std::_String_val<std::_Simple_types<char> >::_Bxty::~_Bxty
PUBLIC	?_Take_contents@?$basic_string@DU?$char_traits@D@std@@V?$allocator@D@2@@std@@AEAAXAEAV12@@Z ; std::basic_string<char,std::char_traits<char>,std::allocator<char> >::_Take_contents
PUBLIC	?_Tidy_init@?$basic_string@DU?$char_traits@D@std@@V?$allocator@D@2@@std@@AEAAXXZ ; std::basic_string<char,std::char_traits<char>,std::allocator<char> >::_Tidy_init
PUBLIC	?_Tidy_deallocate@?$basic_string@DU?$char_traits@D@std@@V?$allocator@D@2@@std@@AEAAXXZ ; std::basic_string<char,std::char_traits<char>,std::allocator<char> >::_Tidy_deallocate
PUBLIC	?_Getal@?$basic_string@DU?$char_traits@D@std@@V?$allocator@D@2@@std@@AEAAAEAV?$allocator@D@2@XZ ; std::basic_string<char,std::char_traits<char>,std::allocator<char> >::_Getal
PUBLIC	?_Getal@?$basic_string@DU?$char_traits@D@std@@V?$allocator@D@2@@std@@AEBAAEBV?$allocator@D@2@XZ ; std::basic_string<char,std::char_traits<char>,std::allocator<char> >::_Getal
PUBLIC	??0?$basic_stringbuf@DU?$char_traits@D@std@@V?$allocator@D@2@@std@@QEAA@H@Z ; std::basic_stringbuf<char,std::char_traits<char>,std::allocator<char> >::basic_stringbuf<char,std::char_traits<char>,std::allocator<char> >
PUBLIC	?str@?$basic_stringbuf@DU?$char_traits@D@std@@V?$allocator@D@2@@std@@QEGBA?AV?$basic_string@DU?$char_traits@D@std@@V?$allocator@D@2@@2@XZ ; std::basic_stringbuf<char,std::char_traits<char>,std::allocator<char> >::str
PUBLIC	?_Tidy@?$basic_stringbuf@DU?$char_traits@D@std@@V?$allocator@D@2@@std@@IEAAXXZ ; std::basic_stringbuf<char,std::char_traits<char>,std::allocator<char> >::_Tidy
PUBLIC	??0?$fpos@U_Mbstatet@@@std@@QEAA@_J@Z		; std::fpos<_Mbstatet>::fpos<_Mbstatet>
PUBLIC	??B?$fpos@U_Mbstatet@@@std@@QEBA_JXZ		; std::fpos<_Mbstatet>::operator __int64
PUBLIC	?pointer_to@?$pointer_traits@PEAD@std@@SAPEADAEAD@Z ; std::pointer_traits<char *>::pointer_to
PUBLIC	??0sentry@?$basic_ostream@_WU?$char_traits@_W@std@@@std@@QEAA@AEAV12@@Z ; std::basic_ostream<wchar_t,std::char_traits<wchar_t> >::sentry::sentry
PUBLIC	??1sentry@?$basic_ostream@_WU?$char_traits@_W@std@@@std@@QEAA@XZ ; std::basic_ostream<wchar_t,std::char_traits<wchar_t> >::sentry::~sentry
PUBLIC	??Bsentry@?$basic_ostream@_WU?$char_traits@_W@std@@@std@@QEBA_NXZ ; std::basic_ostream<wchar_t,std::char_traits<wchar_t> >::sentry::operator bool
PUBLIC	??0sentry@?$basic_ostream@DU?$char_traits@D@std@@@std@@QEAA@AEAV12@@Z ; std::basic_ostream<char,std::char_traits<char> >::sentry::sentry
PUBLIC	??1sentry@?$basic_ostream@DU?$char_traits@D@std@@@std@@QEAA@XZ ; std::basic_ostream<char,std::char_traits<char> >::sentry::~sentry
PUBLIC	??Bsentry@?$basic_ostream@DU?$char_traits@D@std@@@std@@QEBA_NXZ ; std::basic_ostream<char,std::char_traits<char> >::sentry::operator bool
PUBLIC	??_G?$basic_stringstream@DU?$char_traits@D@std@@V?$allocator@D@2@@std@@UEAAPEAXI@Z ; std::basic_stringstream<char,std::char_traits<char>,std::allocator<char> >::`scalar deleting destructor'
PUBLIC	??_G?$basic_stringbuf@DU?$char_traits@D@std@@V?$allocator@D@2@@std@@UEAAPEAXI@Z ; std::basic_stringbuf<char,std::char_traits<char>,std::allocator<char> >::`scalar deleting destructor'
PUBLIC	??0?$basic_string@DU?$char_traits@D@std@@V?$allocator@D@2@@std@@QEAA@QEBD@Z ; std::basic_string<char,std::char_traits<char>,std::allocator<char> >::basic_string<char,std::char_traits<char>,std::allocator<char> >
PUBLIC	??0?$basic_string@DU?$char_traits@D@std@@V?$allocator@D@2@@std@@QEAA@$$QEAV01@@Z ; std::basic_string<char,std::char_traits<char>,std::allocator<char> >::basic_string<char,std::char_traits<char>,std::allocator<char> >
PUBLIC	??1?$_String_val@U?$_Simple_types@D@std@@@std@@QEAA@XZ ; std::_String_val<std::_Simple_types<char> >::~_String_val<std::_Simple_types<char> >
PUBLIC	??1?$_Compressed_pair@V?$allocator@D@std@@V?$_String_val@U?$_Simple_types@D@std@@@2@$00@std@@QEAA@XZ ; std::_Compressed_pair<std::allocator<char>,std::_String_val<std::_Simple_types<char> >,1>::~_Compressed_pair<std::allocator<char>,std::_String_val<std::_Simple_types<char> >,1>
PUBLIC	??1?$basic_string@DU?$char_traits@D@std@@V?$allocator@D@2@@std@@QEAA@XZ ; std::basic_string<char,std::char_traits<char>,std::allocator<char> >::~basic_string<char,std::char_traits<char>,std::allocator<char> >
PUBLIC	?size@?$basic_string@DU?$char_traits@D@std@@V?$allocator@D@2@@std@@QEBA_KXZ ; std::basic_string<char,std::char_traits<char>,std::allocator<char> >::size
PUBLIC	?_Large_mode_engaged@?$_String_val@U?$_Simple_types@D@std@@@std@@QEBA_NXZ ; std::_String_val<std::_Simple_types<char> >::_Large_mode_engaged
PUBLIC	?_Myptr@?$_String_val@U?$_Simple_types@D@std@@@std@@QEAAPEADXZ ; std::_String_val<std::_Simple_types<char> >::_Myptr
PUBLIC	?count@?$duration@_JU?$ratio@$00$00@std@@@chrono@std@@QEBA_JXZ ; std::chrono::duration<__int64,std::ratio<1,1> >::count
PUBLIC	??0?$basic_stringstream@DU?$char_traits@D@std@@V?$allocator@D@2@@std@@QEAA@XZ ; std::basic_stringstream<char,std::char_traits<char>,std::allocator<char> >::basic_stringstream<char,std::char_traits<char>,std::allocator<char> >
PUBLIC	??1?$basic_stringstream@DU?$char_traits@D@std@@V?$allocator@D@2@@std@@UEAA@XZ ; std::basic_stringstream<char,std::char_traits<char>,std::allocator<char> >::~basic_stringstream<char,std::char_traits<char>,std::allocator<char> >
PUBLIC	?str@?$basic_stringstream@DU?$char_traits@D@std@@V?$allocator@D@2@@std@@QEGBA?AV?$basic_string@DU?$char_traits@D@std@@V?$allocator@D@2@@2@XZ ; std::basic_stringstream<char,std::char_traits<char>,std::allocator<char> >::str
PUBLIC	??1?$basic_stringbuf@DU?$char_traits@D@std@@V?$allocator@D@2@@std@@UEAA@XZ ; std::basic_stringbuf<char,std::char_traits<char>,std::allocator<char> >::~basic_stringbuf<char,std::char_traits<char>,std::allocator<char> >
PUBLIC	?overflow@?$basic_stringbuf@DU?$char_traits@D@std@@V?$allocator@D@2@@std@@MEAAHH@Z ; std::basic_stringbuf<char,std::char_traits<char>,std::allocator<char> >::overflow
PUBLIC	?pbackfail@?$basic_stringbuf@DU?$char_traits@D@std@@V?$allocator@D@2@@std@@MEAAHH@Z ; std::basic_stringbuf<char,std::char_traits<char>,std::allocator<char> >::pbackfail
PUBLIC	?underflow@?$basic_stringbuf@DU?$char_traits@D@std@@V?$allocator@D@2@@std@@MEAAHXZ ; std::basic_stringbuf<char,std::char_traits<char>,std::allocator<char> >::underflow
PUBLIC	?seekoff@?$basic_stringbuf@DU?$char_traits@D@std@@V?$allocator@D@2@@std@@MEAA?AV?$fpos@U_Mbstatet@@@2@_JHH@Z ; std::basic_stringbuf<char,std::char_traits<char>,std::allocator<char> >::seekoff
PUBLIC	?seekpos@?$basic_stringbuf@DU?$char_traits@D@std@@V?$allocator@D@2@@std@@MEAA?AV?$fpos@U_Mbstatet@@@2@V32@H@Z ; std::basic_stringbuf<char,std::char_traits<char>,std::allocator<char> >::seekpos
PUBLIC	main
PUBLIC	?__autoclassinit2@?$basic_stringstream@DU?$char_traits@D@std@@V?$allocator@D@2@@std@@QEAAX_K@Z ; std::basic_stringstream<char,std::char_traits<char>,std::allocator<char> >::__autoclassinit2
PUBLIC	??_D?$basic_stringstream@DU?$char_traits@D@std@@V?$allocator@D@2@@std@@QEAAXXZ ; std::basic_stringstream<char,std::char_traits<char>,std::allocator<char> >::`vbase destructor'
PUBLIC	??0?$time_point@Usteady_clock@chrono@std@@V?$duration@_JU?$ratio@$00$0DLJKMKAA@@std@@@23@@chrono@std@@QEAA@AEBV?$duration@_JU?$ratio@$00$0DLJKMKAA@@std@@@12@@Z ; std::chrono::time_point<std::chrono::steady_clock,std::chrono::duration<__int64,std::ratio<1,1000000000> > >::time_point<std::chrono::steady_clock,std::chrono::duration<__int64,std::ratio<1,1000000000> > >
PUBLIC	?count@?$duration@NU?$ratio@$00$00@std@@@chrono@std@@QEBANXZ ; std::chrono::duration<double,std::ratio<1,1> >::count
PUBLIC	?count@?$duration@_JU?$ratio@$00$0DLJKMKAA@@std@@@chrono@std@@QEBA_JXZ ; std::chrono::duration<__int64,std::ratio<1,1000000000> >::count
PUBLIC	??$?0_J$0A@@?$duration@_JU?$ratio@$00$0DLJKMKAA@@std@@@chrono@std@@QEAA@AEB_J@Z ; std::chrono::duration<__int64,std::ratio<1,1000000000> >::duration<__int64,std::ratio<1,1000000000> ><__int64,0>
PUBLIC	?now@steady_clock@chrono@std@@SA?AV?$time_point@Usteady_clock@chrono@std@@V?$duration@_JU?$ratio@$00$0DLJKMKAA@@std@@@23@@23@XZ ; std::chrono::steady_clock::now
PUBLIC	?hex@std@@YAAEAVios_base@1@AEAV21@@Z		; std::hex
PUBLIC	?dec@std@@YAAEAVios_base@1@AEAV21@@Z		; std::dec
PUBLIC	?_Getfacet@locale@std@@QEBAPEBVfacet@12@_K@Z	; std::locale::_Getfacet
PUBLIC	??1locale@std@@QEAA@XZ				; std::locale::~locale
PUBLIC	??0bad_cast@std@@QEAA@AEBV01@@Z			; std::bad_cast::bad_cast
PUBLIC	?_Throw_bad_cast@std@@YAXXZ			; std::_Throw_bad_cast
PUBLIC	??1bad_cast@std@@UEAA@XZ			; std::bad_cast::~bad_cast
PUBLIC	??_Gbad_cast@std@@UEAAPEAXI@Z			; std::bad_cast::`scalar deleting destructor'
PUBLIC	??0bad_cast@std@@QEAA@XZ			; std::bad_cast::bad_cast
PUBLIC	?_Xlen_string@std@@YAXXZ			; std::_Xlen_string
PUBLIC	?_Release@_Fake_proxy_ptr_impl@std@@QEAAXXZ	; std::_Fake_proxy_ptr_impl::_Release
PUBLIC	??0_Fake_proxy_ptr_impl@std@@QEAA@AEBU_Fake_allocator@1@AEBU_Container_base0@1@@Z ; std::_Fake_proxy_ptr_impl::_Fake_proxy_ptr_impl
PUBLIC	?_Alloc_proxy@_Container_base0@std@@QEAAXAEBU_Fake_allocator@2@@Z ; std::_Container_base0::_Alloc_proxy
PUBLIC	?_Swap_proxy_and_iterators@_Container_base0@std@@QEAAXAEAU12@@Z ; std::_Container_base0::_Swap_proxy_and_iterators
PUBLIC	?_Orphan_all@_Container_base0@std@@QEAAXXZ	; std::_Container_base0::_Orphan_all
PUBLIC	?_Adjust_manually_vector_aligned@std@@YAXAEAPEAXAEA_K@Z ; std::_Adjust_manually_vector_aligned
PUBLIC	?_Allocate@_Default_allocate_traits@std@@SAPEAX_K@Z ; std::_Default_allocate_traits::_Allocate
PUBLIC	?max@?$numeric_limits@_J@std@@SA_JXZ		; std::numeric_limits<__int64>::max
PUBLIC	??0bad_alloc@std@@QEAA@AEBV01@@Z		; std::bad_alloc::bad_alloc
PUBLIC	??0bad_array_new_length@std@@QEAA@AEBV01@@Z	; std::bad_array_new_length::bad_array_new_length
PUBLIC	?_Throw_bad_array_new_length@std@@YAXXZ		; std::_Throw_bad_array_new_length
PUBLIC	??1bad_array_new_length@std@@UEAA@XZ		; std::bad_array_new_length::~bad_array_new_length
PUBLIC	??_Gbad_array_new_length@std@@UEAAPEAXI@Z	; std::bad_array_new_length::`scalar deleting destructor'
PUBLIC	??0bad_array_new_length@std@@QEAA@XZ		; std::bad_array_new_length::bad_array_new_length
PUBLIC	??1bad_alloc@std@@UEAA@XZ			; std::bad_alloc::~bad_alloc
PUBLIC	??_Gbad_alloc@std@@UEAAPEAXI@Z			; std::bad_alloc::`scalar deleting destructor'
PUBLIC	??0bad_alloc@std@@AEAA@QEBD@Z			; std::bad_alloc::bad_alloc
PUBLIC	??_Gexception@std@@UEAAPEAXI@Z			; std::exception::`scalar deleting destructor'
PUBLIC	?what@exception@std@@UEBAPEBDXZ			; std::exception::what
PUBLIC	??1exception@std@@UEAA@XZ			; std::exception::~exception
PUBLIC	??0exception@std@@QEAA@AEBV01@@Z		; std::exception::exception
PUBLIC	??0exception@std@@QEAA@QEBDH@Z			; std::exception::exception
PUBLIC	wprintf
PUBLIC	_vfwprintf_l
PUBLIC	__local_stdio_printf_options
PUBLIC	??Nstd@@YA_NUstrong_ordering@0@U_Literal_zero@0@@Z ; std::operator<=
PUBLIC	??Ostd@@YA_NUstrong_ordering@0@U_Literal_zero@0@@Z ; std::operator>
PUBLIC	??Mstd@@YA_NUstrong_ordering@0@U_Literal_zero@0@@Z ; std::operator<
PUBLIC	??Mstd@@YA_NUpartial_ordering@0@U_Literal_zero@0@@Z ; std::operator<
PUBLIC	?is_constant_evaluated@std@@YA_NXZ		; std::is_constant_evaluated
PUBLIC	??2@YAPEAX_KPEAX@Z				; operator new
PUBLIC	?_OptionsStorage@?1??__local_stdio_printf_options@@9@4_KA ; `__local_stdio_printf_options'::`2'::_OptionsStorage
PUBLIC	__real@41cdcd6500000000
PUBLIC	__real@43088e6d68b00000
EXTRN	__std_terminate:PROC
EXTRN	??1_Lockit@std@@QEAA@XZ:PROC			; std::_Lockit::~_Lockit
EXTRN	??_E?$basic_stringstream@DU?$char_traits@D@std@@V?$allocator@D@2@@std@@UEAAPEAXI@Z:PROC ; std::basic_stringstream<char,std::char_traits<char>,std::allocator<char> >::`vector deleting destructor'
EXTRN	??_Ebad_cast@std@@UEAAPEAXI@Z:PROC		; std::bad_cast::`vector deleting destructor'
EXTRN	??_E?$basic_stringbuf@DU?$char_traits@D@std@@V?$allocator@D@2@@std@@UEAAPEAXI@Z:PROC ; std::basic_stringbuf<char,std::char_traits<char>,std::allocator<char> >::`vector deleting destructor'
EXTRN	??_Eexception@std@@UEAAPEAXI@Z:PROC		; std::exception::`vector deleting destructor'
EXTRN	??_Ebad_alloc@std@@UEAAPEAXI@Z:PROC		; std::bad_alloc::`vector deleting destructor'
EXTRN	??_Ebad_array_new_length@std@@UEAAPEAXI@Z:PROC	; std::bad_array_new_length::`vector deleting destructor'
EXTRN	_CxxThrowException:PROC
EXTRN	__CxxFrameHandler4:PROC
EXTRN	__GSHandlerCheck:PROC
EXTRN	__GSHandlerCheck_EH4:PROC
EXTRN	memcpy:PROC
EXTRN	memmove:PROC
EXTRN	memset:PROC
EXTRN	__security_cookie:QWORD
EXTRN	_fltused:DWORD
;	COMDAT ?_OptionsStorage@?1??__local_stdio_printf_options@@9@4_KA
_BSS	SEGMENT
?_OptionsStorage@?1??__local_stdio_printf_options@@9@4_KA DQ 01H DUP (?) ; `__local_stdio_printf_options'::`2'::_OptionsStorage
_BSS	ENDS
;	COMDAT pdata
pdata	SEGMENT
$pdata$??$_Allocate_manually_vector_aligned@U_Default_allocate_traits@std@@@std@@YAPEAX_K@Z DD imagerel $LN17
	DD	imagerel $LN17+59
	DD	imagerel $unwind$??$_Allocate_manually_vector_aligned@U_Default_allocate_traits@std@@@std@@YAPEAX_K@Z
pdata	ENDS
;	COMDAT pdata
pdata	SEGMENT
$pdata$??$_To_timespec64_sys_10_day_clamped@_JU?$ratio@$00$0DLJKMKAA@@std@@@std@@YA_NAEAU_timespec64@@AEBV?$duration@_JU?$ratio@$00$0DLJKMKAA@@std@@@chrono@0@@Z DD imagerel $LN69
	DD	imagerel $LN69+135
	DD	imagerel $unwind$??$_To_timespec64_sys_10_day_clamped@_JU?$ratio@$00$0DLJKMKAA@@std@@@std@@YA_NAEAU_timespec64@@AEBV?$duration@_JU?$ratio@$00$0DLJKMKAA@@std@@@chrono@0@@Z
pdata	ENDS
;	COMDAT pdata
pdata	SEGMENT
$pdata$??$_Allocate@$0BA@U_Default_allocate_traits@std@@$0A@@std@@YAPEAX_K@Z DD imagerel $LN25
	DD	imagerel $LN25+89
	DD	imagerel $unwind$??$_Allocate@$0BA@U_Default_allocate_traits@std@@$0A@@std@@YAPEAX_K@Z
pdata	ENDS
;	COMDAT pdata
pdata	SEGMENT
$pdata$??$_Allocate_for_capacity@$0A@@?$basic_string@DU?$char_traits@D@std@@V?$allocator@D@2@@std@@CAPEADAEAV?$allocator@D@1@AEA_K@Z DD imagerel $LN49
	DD	imagerel $LN49+113
	DD	imagerel $unwind$??$_Allocate_for_capacity@$0A@@?$basic_string@DU?$char_traits@D@std@@V?$allocator@D@2@@std@@CAPEADAEAV?$allocator@D@1@AEA_K@Z
pdata	ENDS
;	COMDAT pdata
pdata	SEGMENT
$pdata$??$sleep_until@Usteady_clock@chrono@std@@V?$duration@_JU?$ratio@$00$0DLJKMKAA@@std@@@23@@this_thread@std@@YAXAEBV?$time_point@Usteady_clock@chrono@std@@V?$duration@_JU?$ratio@$00$0DLJKMKAA@@std@@@23@@chrono@1@@Z DD imagerel $LN130
	DD	imagerel $LN130+388
	DD	imagerel $unwind$??$sleep_until@Usteady_clock@chrono@std@@V?$duration@_JU?$ratio@$00$0DLJKMKAA@@std@@@23@@this_thread@std@@YAXAEBV?$time_point@Usteady_clock@chrono@std@@V?$duration@_JU?$ratio@$00$0DLJKMKAA@@std@@@23@@chrono@1@@Z
pdata	ENDS
;	COMDAT pdata
pdata	SEGMENT
$pdata$??$_Insert_string@DU?$char_traits@D@std@@_K@std@@YAAEAV?$basic_ostream@DU?$char_traits@D@std@@@0@AEAV10@QEBD_K@Z DD imagerel $LN103
	DD	imagerel $LN103+440
	DD	imagerel $unwind$??$_Insert_string@DU?$char_traits@D@std@@_K@std@@YAAEAV?$basic_ostream@DU?$char_traits@D@std@@@0@AEAV10@QEBD_K@Z
pdata	ENDS
;	COMDAT pdata
pdata	SEGMENT
$pdata$?catch$17@?0???$_Insert_string@DU?$char_traits@D@std@@_K@std@@YAAEAV?$basic_ostream@DU?$char_traits@D@std@@@0@AEAV10@QEBD_K@Z@4HA DD imagerel ?catch$17@?0???$_Insert_string@DU?$char_traits@D@std@@_K@std@@YAAEAV?$basic_ostream@DU?$char_traits@D@std@@@0@AEAV10@QEBD_K@Z@4HA
	DD	imagerel ?catch$17@?0???$_Insert_string@DU?$char_traits@D@std@@_K@std@@YAAEAV?$basic_ostream@DU?$char_traits@D@std@@@0@AEAV10@QEBD_K@Z@4HA+59
	DD	imagerel $unwind$?catch$17@?0???$_Insert_string@DU?$char_traits@D@std@@_K@std@@YAAEAV?$basic_ostream@DU?$char_traits@D@std@@@0@AEAV10@QEBD_K@Z@4HA
pdata	ENDS
;	COMDAT pdata
pdata	SEGMENT
$pdata$?allocate@?$allocator@D@std@@QEAAPEAD_K@Z DD imagerel $LN28
	DD	imagerel $LN28+89
	DD	imagerel $unwind$?allocate@?$allocator@D@std@@QEAAPEAD_K@Z
pdata	ENDS
;	COMDAT pdata
pdata	SEGMENT
$pdata$??$_Reallocate_for@V<lambda_1>@?1??assign@?$basic_string@DU?$char_traits@D@std@@V?$allocator@D@2@@std@@QEAAAEAV34@QEBD_K@Z@PEBD@?$basic_string@DU?$char_traits@D@std@@V?$allocator@D@2@@std@@AEAAAEAV01@_KV<lambda_1>@?1??assign@01@QEAAAEAV01@QEBD0@Z@PEBD@Z DD imagerel $LN110
	DD	imagerel $LN110+39
	DD	imagerel $unwind$??$_Reallocate_for@V<lambda_1>@?1??assign@?$basic_string@DU?$char_traits@D@std@@V?$allocator@D@2@@std@@QEAAAEAV34@QEBD_K@Z@PEBD@?$basic_string@DU?$char_traits@D@std@@V?$allocator@D@2@@std@@AEAAAEAV01@_KV<lambda_1>@?1??assign@01@QEAAAEAV01@QEBD0@Z@PEBD@Z
pdata	ENDS
;	COMDAT pdata
pdata	SEGMENT
$pdata$1$??$_Reallocate_for@V<lambda_1>@?1??assign@?$basic_string@DU?$char_traits@D@std@@V?$allocator@D@2@@std@@QEAAAEAV34@QEBD_K@Z@PEBD@?$basic_string@DU?$char_traits@D@std@@V?$allocator@D@2@@std@@AEAAAEAV01@_KV<lambda_1>@?1??assign@01@QEAAAEAV01@QEBD0@Z@PEBD@Z DD imagerel $LN110+39
	DD	imagerel $LN110+287
	DD	imagerel $chain$1$??$_Reallocate_for@V<lambda_1>@?1??assign@?$basic_string@DU?$char_traits@D@std@@V?$allocator@D@2@@std@@QEAAAEAV34@QEBD_K@Z@PEBD@?$basic_string@DU?$char_traits@D@std@@V?$allocator@D@2@@std@@AEAAAEAV01@_KV<lambda_1>@?1??assign@01@QEAAAEAV01@QEBD0@Z@PEBD@Z
pdata	ENDS
;	COMDAT pdata
pdata	SEGMENT
$pdata$3$??$_Reallocate_for@V<lambda_1>@?1??assign@?$basic_string@DU?$char_traits@D@std@@V?$allocator@D@2@@std@@QEAAAEAV34@QEBD_K@Z@PEBD@?$basic_string@DU?$char_traits@D@std@@V?$allocator@D@2@@std@@AEAAAEAV01@_KV<lambda_1>@?1??assign@01@QEAAAEAV01@QEBD0@Z@PEBD@Z DD imagerel $LN110+287
	DD	imagerel $LN110+294
	DD	imagerel $chain$3$??$_Reallocate_for@V<lambda_1>@?1??assign@?$basic_string@DU?$char_traits@D@std@@V?$allocator@D@2@@std@@QEAAAEAV34@QEBD_K@Z@PEBD@?$basic_string@DU?$char_traits@D@std@@V?$allocator@D@2@@std@@AEAAAEAV01@_KV<lambda_1>@?1??assign@01@QEAAAEAV01@QEBD0@Z@PEBD@Z
pdata	ENDS
;	COMDAT pdata
pdata	SEGMENT
$pdata$4$??$_Reallocate_for@V<lambda_1>@?1??assign@?$basic_string@DU?$char_traits@D@std@@V?$allocator@D@2@@std@@QEAAAEAV34@QEBD_K@Z@PEBD@?$basic_string@DU?$char_traits@D@std@@V?$allocator@D@2@@std@@AEAAAEAV01@_KV<lambda_1>@?1??assign@01@QEAAAEAV01@QEBD0@Z@PEBD@Z DD imagerel $LN110+294
	DD	imagerel $LN110+300
	DD	imagerel $chain$4$??$_Reallocate_for@V<lambda_1>@?1??assign@?$basic_string@DU?$char_traits@D@std@@V?$allocator@D@2@@std@@QEAAAEAV34@QEBD_K@Z@PEBD@?$basic_string@DU?$char_traits@D@std@@V?$allocator@D@2@@std@@AEAAAEAV01@_KV<lambda_1>@?1??assign@01@QEAAAEAV01@QEBD0@Z@PEBD@Z
pdata	ENDS
;	COMDAT pdata
pdata	SEGMENT
$pdata$5$??$_Reallocate_for@V<lambda_1>@?1??assign@?$basic_string@DU?$char_traits@D@std@@V?$allocator@D@2@@std@@QEAAAEAV34@QEBD_K@Z@PEBD@?$basic_string@DU?$char_traits@D@std@@V?$allocator@D@2@@std@@AEAAAEAV01@_KV<lambda_1>@?1??assign@01@QEAAAEAV01@QEBD0@Z@PEBD@Z DD imagerel $LN110+300
	DD	imagerel $LN110+306
	DD	imagerel $chain$5$??$_Reallocate_for@V<lambda_1>@?1??assign@?$basic_string@DU?$char_traits@D@std@@V?$allocator@D@2@@std@@QEAAAEAV34@QEBD_K@Z@PEBD@?$basic_string@DU?$char_traits@D@std@@V?$allocator@D@2@@std@@AEAAAEAV01@_KV<lambda_1>@?1??assign@01@QEAAAEAV01@QEBD0@Z@PEBD@Z
pdata	ENDS
;	COMDAT pdata
pdata	SEGMENT
$pdata$??$_Deallocate@$0BA@$0A@@std@@YAXPEAX_K@Z DD imagerel $LN20
	DD	imagerel $LN20+53
	DD	imagerel $unwind$??$_Deallocate@$0BA@$0A@@std@@YAXPEAX_K@Z
pdata	ENDS
;	COMDAT pdata
pdata	SEGMENT
$pdata$??$_Construct@$00PEBD@?$basic_string@DU?$char_traits@D@std@@V?$allocator@D@2@@std@@AEAAXQEBD_K@Z DD imagerel $LN92
	DD	imagerel $LN92+79
	DD	imagerel $unwind$??$_Construct@$00PEBD@?$basic_string@DU?$char_traits@D@std@@V?$allocator@D@2@@std@@AEAAXQEBD_K@Z
pdata	ENDS
;	COMDAT pdata
pdata	SEGMENT
$pdata$0$??$_Construct@$00PEBD@?$basic_string@DU?$char_traits@D@std@@V?$allocator@D@2@@std@@AEAAXQEBD_K@Z DD imagerel $LN92+79
	DD	imagerel $LN92+241
	DD	imagerel $chain$0$??$_Construct@$00PEBD@?$basic_string@DU?$char_traits@D@std@@V?$allocator@D@2@@std@@AEAAXQEBD_K@Z
pdata	ENDS
;	COMDAT pdata
pdata	SEGMENT
$pdata$1$??$_Construct@$00PEBD@?$basic_string@DU?$char_traits@D@std@@V?$allocator@D@2@@std@@AEAAXQEBD_K@Z DD imagerel $LN92+241
	DD	imagerel $LN92+247
	DD	imagerel $chain$1$??$_Construct@$00PEBD@?$basic_string@DU?$char_traits@D@std@@V?$allocator@D@2@@std@@AEAAXQEBD_K@Z
pdata	ENDS
;	COMDAT pdata
pdata	SEGMENT
$pdata$2$??$_Construct@$00PEBD@?$basic_string@DU?$char_traits@D@std@@V?$allocator@D@2@@std@@AEAAXQEBD_K@Z DD imagerel $LN92+247
	DD	imagerel $LN92+253
	DD	imagerel $chain$2$??$_Construct@$00PEBD@?$basic_string@DU?$char_traits@D@std@@V?$allocator@D@2@@std@@AEAAXQEBD_K@Z
pdata	ENDS
;	COMDAT pdata
pdata	SEGMENT
$pdata$??$use_facet@V?$ctype@_W@std@@@std@@YAAEBV?$ctype@_W@0@AEBVlocale@0@@Z DD imagerel $LN41
	DD	imagerel $LN41+269
	DD	imagerel $unwind$??$use_facet@V?$ctype@_W@std@@@std@@YAAEBV?$ctype@_W@0@AEBVlocale@0@@Z
pdata	ENDS
;	COMDAT pdata
pdata	SEGMENT
$pdata$??$_Allocate_at_least_helper@V?$allocator@D@std@@@std@@YAPEADAEAV?$allocator@D@0@AEA_K@Z DD imagerel $LN31
	DD	imagerel $LN31+92
	DD	imagerel $unwind$??$_Allocate_at_least_helper@V?$allocator@D@std@@@std@@YAPEADAEAV?$allocator@D@0@AEA_K@Z
pdata	ENDS
;	COMDAT pdata
pdata	SEGMENT
$pdata$??$_To_absolute_time@_JU?$ratio@$00$00@std@@@std@@YA?A_PAEBV?$duration@_JU?$ratio@$00$00@std@@@chrono@0@@Z DD imagerel $LN84
	DD	imagerel $LN84+265
	DD	imagerel $unwind$??$_To_absolute_time@_JU?$ratio@$00$00@std@@@std@@YA?A_PAEBV?$duration@_JU?$ratio@$00$00@std@@@chrono@0@@Z
pdata	ENDS
;	COMDAT pdata
pdata	SEGMENT
$pdata$??$sleep_for@_JU?$ratio@$00$00@std@@@this_thread@std@@YAXAEBV?$duration@_JU?$ratio@$00$00@std@@@chrono@1@@Z DD imagerel $LN191
	DD	imagerel $LN191+449
	DD	imagerel $unwind$??$sleep_for@_JU?$ratio@$00$00@std@@@this_thread@std@@YAXAEBV?$duration@_JU?$ratio@$00$00@std@@@chrono@1@@Z
pdata	ENDS
;	COMDAT pdata
pdata	SEGMENT
$pdata$??$endl@_WU?$char_traits@_W@std@@@std@@YAAEAV?$basic_ostream@_WU?$char_traits@_W@std@@@0@AEAV10@@Z DD imagerel $LN4
	DD	imagerel $LN4+57
	DD	imagerel $unwind$??$endl@_WU?$char_traits@_W@std@@@std@@YAAEAV?$basic_ostream@_WU?$char_traits@_W@std@@@0@AEAV10@@Z
pdata	ENDS
;	COMDAT pdata
pdata	SEGMENT
$pdata$??$?6_WU?$char_traits@_W@std@@@std@@YAAEAV?$basic_ostream@_WU?$char_traits@_W@std@@@0@AEAV10@PEBD@Z DD imagerel $LN134
	DD	imagerel $LN134+621
	DD	imagerel $unwind$??$?6_WU?$char_traits@_W@std@@@std@@YAAEAV?$basic_ostream@_WU?$char_traits@_W@std@@@0@AEAV10@PEBD@Z
pdata	ENDS
;	COMDAT pdata
pdata	SEGMENT
$pdata$?catch$18@?0???$?6_WU?$char_traits@_W@std@@@std@@YAAEAV?$basic_ostream@_WU?$char_traits@_W@std@@@0@AEAV10@PEBD@Z@4HA DD imagerel ?catch$18@?0???$?6_WU?$char_traits@_W@std@@@std@@YAAEAV?$basic_ostream@_WU?$char_traits@_W@std@@@0@AEAV10@PEBD@Z@4HA
	DD	imagerel ?catch$18@?0???$?6_WU?$char_traits@_W@std@@@std@@YAAEAV?$basic_ostream@_WU?$char_traits@_W@std@@@0@AEAV10@PEBD@Z@4HA+62
	DD	imagerel $unwind$?catch$18@?0???$?6_WU?$char_traits@_W@std@@@std@@YAAEAV?$basic_ostream@_WU?$char_traits@_W@std@@@0@AEAV10@PEBD@Z@4HA
pdata	ENDS
;	COMDAT pdata
pdata	SEGMENT
$pdata$??$?6_WU?$char_traits@_W@std@@@std@@YAAEAV?$basic_ostream@_WU?$char_traits@_W@std@@@0@AEAV10@PEB_W@Z DD imagerel $LN106
	DD	imagerel $LN106+476
	DD	imagerel $unwind$??$?6_WU?$char_traits@_W@std@@@std@@YAAEAV?$basic_ostream@_WU?$char_traits@_W@std@@@0@AEAV10@PEB_W@Z
pdata	ENDS
;	COMDAT pdata
pdata	SEGMENT
$pdata$?catch$17@?0???$?6_WU?$char_traits@_W@std@@@std@@YAAEAV?$basic_ostream@_WU?$char_traits@_W@std@@@0@AEAV10@PEB_W@Z@4HA DD imagerel ?catch$17@?0???$?6_WU?$char_traits@_W@std@@@std@@YAAEAV?$basic_ostream@_WU?$char_traits@_W@std@@@0@AEAV10@PEB_W@Z@4HA
	DD	imagerel ?catch$17@?0???$?6_WU?$char_traits@_W@std@@@std@@YAAEAV?$basic_ostream@_WU?$char_traits@_W@std@@@0@AEAV10@PEB_W@Z@4HA+59
	DD	imagerel $unwind$?catch$17@?0???$?6_WU?$char_traits@_W@std@@@std@@YAAEAV?$basic_ostream@_WU?$char_traits@_W@std@@@0@AEAV10@PEB_W@Z@4HA
pdata	ENDS
;	COMDAT pdata
pdata	SEGMENT
$pdata$??$?6DU?$char_traits@D@std@@@std@@YAAEAV?$basic_ostream@DU?$char_traits@D@std@@@0@AEAV10@AEBU?$_Smanip@_J@0@@Z DD imagerel $LN4
	DD	imagerel $LN4+38
	DD	imagerel $unwind$??$?6DU?$char_traits@D@std@@@std@@YAAEAV?$basic_ostream@DU?$char_traits@D@std@@@0@AEAV10@AEBU?$_Smanip@_J@0@@Z
pdata	ENDS
;	COMDAT pdata
pdata	SEGMENT
$pdata$??$endl@DU?$char_traits@D@std@@@std@@YAAEAV?$basic_ostream@DU?$char_traits@D@std@@@0@AEAV10@@Z DD imagerel $LN4
	DD	imagerel $LN4+57
	DD	imagerel $unwind$??$endl@DU?$char_traits@D@std@@@std@@YAAEAV?$basic_ostream@DU?$char_traits@D@std@@@0@AEAV10@@Z
pdata	ENDS
;	COMDAT pdata
pdata	SEGMENT
$pdata$??$?6U?$char_traits@D@std@@@std@@YAAEAV?$basic_ostream@DU?$char_traits@D@std@@@0@AEAV10@PEBD@Z DD imagerel $LN105
	DD	imagerel $LN105+461
	DD	imagerel $unwind$??$?6U?$char_traits@D@std@@@std@@YAAEAV?$basic_ostream@DU?$char_traits@D@std@@@0@AEAV10@PEBD@Z
pdata	ENDS
;	COMDAT pdata
pdata	SEGMENT
$pdata$?catch$17@?0???$?6U?$char_traits@D@std@@@std@@YAAEAV?$basic_ostream@DU?$char_traits@D@std@@@0@AEAV10@PEBD@Z@4HA DD imagerel ?catch$17@?0???$?6U?$char_traits@D@std@@@std@@YAAEAV?$basic_ostream@DU?$char_traits@D@std@@@0@AEAV10@PEBD@Z@4HA
	DD	imagerel ?catch$17@?0???$?6U?$char_traits@D@std@@@std@@YAAEAV?$basic_ostream@DU?$char_traits@D@std@@@0@AEAV10@PEBD@Z@4HA+59
	DD	imagerel $unwind$?catch$17@?0???$?6U?$char_traits@D@std@@@std@@YAAEAV?$basic_ostream@DU?$char_traits@D@std@@@0@AEAV10@PEBD@Z@4HA
pdata	ENDS
;	COMDAT pdata
pdata	SEGMENT
$pdata$?move@?$_Char_traits@DH@std@@SAPEADQEADQEBD_K@Z DD imagerel $LN33
	DD	imagerel $LN33+23
	DD	imagerel $unwind$?move@?$_Char_traits@DH@std@@SAPEADQEADQEBD_K@Z
pdata	ENDS
;	COMDAT pdata
pdata	SEGMENT
$pdata$?_Deallocate_for_capacity@?$basic_string@DU?$char_traits@D@std@@V?$allocator@D@2@@std@@CAXAEAV?$allocator@D@2@QEAD_K@Z DD imagerel $LN26
	DD	imagerel $LN26+63
	DD	imagerel $unwind$?_Deallocate_for_capacity@?$basic_string@DU?$char_traits@D@std@@V?$allocator@D@2@@std@@CAXAEAV?$allocator@D@2@QEAD_K@Z
pdata	ENDS
;	COMDAT pdata
pdata	SEGMENT
$pdata$??R<lambda_1>@?1??assign@?$basic_string@DU?$char_traits@D@std@@V?$allocator@D@2@@std@@QEAAAEAV23@QEBD_K@Z@QEBA@QEAD10@Z DD imagerel $LN17
	DD	imagerel $LN17+42
	DD	imagerel $unwind$??R<lambda_1>@?1??assign@?$basic_string@DU?$char_traits@D@std@@V?$allocator@D@2@@std@@QEAAAEAV23@QEBD_K@Z@QEBA@QEAD10@Z
pdata	ENDS
;	COMDAT pdata
pdata	SEGMENT
$pdata$?assign@?$basic_string@DU?$char_traits@D@std@@V?$allocator@D@2@@std@@QEAAAEAV12@QEBD_K@Z DD imagerel $LN43
	DD	imagerel $LN43+25
	DD	imagerel $unwind$?assign@?$basic_string@DU?$char_traits@D@std@@V?$allocator@D@2@@std@@QEAAAEAV12@QEBD_K@Z
pdata	ENDS
;	COMDAT pdata
pdata	SEGMENT
$pdata$0$?assign@?$basic_string@DU?$char_traits@D@std@@V?$allocator@D@2@@std@@QEAAAEAV12@QEBD_K@Z DD imagerel $LN43+25
	DD	imagerel $LN43+77
	DD	imagerel $chain$0$?assign@?$basic_string@DU?$char_traits@D@std@@V?$allocator@D@2@@std@@QEAAAEAV12@QEBD_K@Z
pdata	ENDS
;	COMDAT pdata
pdata	SEGMENT
$pdata$1$?assign@?$basic_string@DU?$char_traits@D@std@@V?$allocator@D@2@@std@@QEAAAEAV12@QEBD_K@Z DD imagerel $LN43+77
	DD	imagerel $LN43+98
	DD	imagerel $chain$1$?assign@?$basic_string@DU?$char_traits@D@std@@V?$allocator@D@2@@std@@QEAAAEAV12@QEBD_K@Z
pdata	ENDS
;	COMDAT pdata
pdata	SEGMENT
$pdata$??0_Sentry_base@?$basic_ostream@_WU?$char_traits@_W@std@@@std@@QEAA@AEAV12@@Z DD imagerel $LN11
	DD	imagerel $LN11+44
	DD	imagerel $unwind$??0_Sentry_base@?$basic_ostream@_WU?$char_traits@_W@std@@@std@@QEAA@AEAV12@@Z
pdata	ENDS
;	COMDAT pdata
pdata	SEGMENT
$pdata$??1_Sentry_base@?$basic_ostream@_WU?$char_traits@_W@std@@@std@@QEAA@XZ DD imagerel $LN9
	DD	imagerel $LN9+36
	DD	imagerel $unwind$??1_Sentry_base@?$basic_ostream@_WU?$char_traits@_W@std@@@std@@QEAA@XZ
pdata	ENDS
;	COMDAT pdata
pdata	SEGMENT
$pdata$??0_Sentry_base@?$basic_ostream@DU?$char_traits@D@std@@@std@@QEAA@AEAV12@@Z DD imagerel $LN11
	DD	imagerel $LN11+44
	DD	imagerel $unwind$??0_Sentry_base@?$basic_ostream@DU?$char_traits@D@std@@@std@@QEAA@AEAV12@@Z
pdata	ENDS
;	COMDAT pdata
pdata	SEGMENT
$pdata$??1_Sentry_base@?$basic_ostream@DU?$char_traits@D@std@@@std@@QEAA@XZ DD imagerel $LN9
	DD	imagerel $LN9+36
	DD	imagerel $unwind$??1_Sentry_base@?$basic_ostream@DU?$char_traits@D@std@@@std@@QEAA@XZ
pdata	ENDS
;	COMDAT pdata
pdata	SEGMENT
$pdata$?copy@?$_Char_traits@DH@std@@SAPEADQEADQEBD_K@Z DD imagerel $LN15
	DD	imagerel $LN15+23
	DD	imagerel $unwind$?copy@?$_Char_traits@DH@std@@SAPEADQEADQEBD_K@Z
pdata	ENDS
;	COMDAT pdata
pdata	SEGMENT
$pdata$?deallocate@?$allocator@D@std@@QEAAXQEAD_K@Z DD imagerel $LN23
	DD	imagerel $LN23+62
	DD	imagerel $unwind$?deallocate@?$allocator@D@std@@QEAAXQEAD_K@Z
pdata	ENDS
;	COMDAT pdata
pdata	SEGMENT
$pdata$?_Tidy_deallocate@?$basic_string@DU?$char_traits@D@std@@V?$allocator@D@2@@std@@AEAAXXZ DD imagerel $LN35
	DD	imagerel $LN35+95
	DD	imagerel $unwind$?_Tidy_deallocate@?$basic_string@DU?$char_traits@D@std@@V?$allocator@D@2@@std@@AEAAXXZ
pdata	ENDS
;	COMDAT pdata
pdata	SEGMENT
$pdata$??0?$basic_stringbuf@DU?$char_traits@D@std@@V?$allocator@D@2@@std@@QEAA@H@Z DD imagerel $LN6
	DD	imagerel $LN6+43
	DD	imagerel $unwind$??0?$basic_stringbuf@DU?$char_traits@D@std@@V?$allocator@D@2@@std@@QEAA@H@Z
pdata	ENDS
;	COMDAT pdata
pdata	SEGMENT
$pdata$?str@?$basic_stringbuf@DU?$char_traits@D@std@@V?$allocator@D@2@@std@@QEGBA?AV?$basic_string@DU?$char_traits@D@std@@V?$allocator@D@2@@2@XZ DD imagerel $LN92
	DD	imagerel $LN92+206
	DD	imagerel $unwind$?str@?$basic_stringbuf@DU?$char_traits@D@std@@V?$allocator@D@2@@std@@QEGBA?AV?$basic_string@DU?$char_traits@D@std@@V?$allocator@D@2@@2@XZ
pdata	ENDS
;	COMDAT pdata
pdata	SEGMENT
$pdata$?dtor$0@?0??str@?$basic_stringbuf@DU?$char_traits@D@std@@V?$allocator@D@2@@std@@QEGBA?AV?$basic_string@DU?$char_traits@D@std@@V?$allocator@D@2@@2@XZ@4HA DD imagerel ?dtor$0@?0??str@?$basic_stringbuf@DU?$char_traits@D@std@@V?$allocator@D@2@@std@@QEGBA?AV?$basic_string@DU?$char_traits@D@std@@V?$allocator@D@2@@2@XZ@4HA
	DD	imagerel ?dtor$0@?0??str@?$basic_stringbuf@DU?$char_traits@D@std@@V?$allocator@D@2@@std@@QEGBA?AV?$basic_string@DU?$char_traits@D@std@@V?$allocator@D@2@@2@XZ@4HA+38
	DD	imagerel $unwind$?dtor$0@?0??str@?$basic_stringbuf@DU?$char_traits@D@std@@V?$allocator@D@2@@std@@QEGBA?AV?$basic_string@DU?$char_traits@D@std@@V?$allocator@D@2@@2@XZ@4HA
pdata	ENDS
;	COMDAT pdata
pdata	SEGMENT
$pdata$?_Tidy@?$basic_stringbuf@DU?$char_traits@D@std@@V?$allocator@D@2@@std@@IEAAXXZ DD imagerel $LN55
	DD	imagerel $LN55+164
	DD	imagerel $unwind$?_Tidy@?$basic_stringbuf@DU?$char_traits@D@std@@V?$allocator@D@2@@std@@IEAAXXZ
pdata	ENDS
;	COMDAT pdata
pdata	SEGMENT
$pdata$??0sentry@?$basic_ostream@_WU?$char_traits@_W@std@@@std@@QEAA@AEAV12@@Z DD imagerel $LN18
	DD	imagerel $LN18+133
	DD	imagerel $unwind$??0sentry@?$basic_ostream@_WU?$char_traits@_W@std@@@std@@QEAA@AEAV12@@Z
pdata	ENDS
;	COMDAT pdata
pdata	SEGMENT
$pdata$??1sentry@?$basic_ostream@_WU?$char_traits@_W@std@@@std@@QEAA@XZ DD imagerel $LN14
	DD	imagerel $LN14+62
	DD	imagerel $unwind$??1sentry@?$basic_ostream@_WU?$char_traits@_W@std@@@std@@QEAA@XZ
pdata	ENDS
;	COMDAT pdata
pdata	SEGMENT
$pdata$??0sentry@?$basic_ostream@DU?$char_traits@D@std@@@std@@QEAA@AEAV12@@Z DD imagerel $LN18
	DD	imagerel $LN18+133
	DD	imagerel $unwind$??0sentry@?$basic_ostream@DU?$char_traits@D@std@@@std@@QEAA@AEAV12@@Z
pdata	ENDS
;	COMDAT pdata
pdata	SEGMENT
$pdata$??1sentry@?$basic_ostream@DU?$char_traits@D@std@@@std@@QEAA@XZ DD imagerel $LN14
	DD	imagerel $LN14+62
	DD	imagerel $unwind$??1sentry@?$basic_ostream@DU?$char_traits@D@std@@@std@@QEAA@XZ
pdata	ENDS
;	COMDAT pdata
pdata	SEGMENT
$pdata$??_G?$basic_stringstream@DU?$char_traits@D@std@@V?$allocator@D@2@@std@@UEAAPEAXI@Z DD imagerel $LN13
	DD	imagerel $LN13+146
	DD	imagerel $unwind$??_G?$basic_stringstream@DU?$char_traits@D@std@@V?$allocator@D@2@@std@@UEAAPEAXI@Z
pdata	ENDS
;	COMDAT pdata
pdata	SEGMENT
$pdata$??_G?$basic_stringbuf@DU?$char_traits@D@std@@V?$allocator@D@2@@std@@UEAAPEAXI@Z DD imagerel $LN8
	DD	imagerel $LN8+52
	DD	imagerel $unwind$??_G?$basic_stringbuf@DU?$char_traits@D@std@@V?$allocator@D@2@@std@@UEAAPEAXI@Z
pdata	ENDS
;	COMDAT pdata
pdata	SEGMENT
$pdata$??0?$basic_string@DU?$char_traits@D@std@@V?$allocator@D@2@@std@@QEAA@QEBD@Z DD imagerel $LN106
	DD	imagerel $LN106+287
	DD	imagerel $unwind$??0?$basic_string@DU?$char_traits@D@std@@V?$allocator@D@2@@std@@QEAA@QEBD@Z
pdata	ENDS
;	COMDAT pdata
pdata	SEGMENT
$pdata$??1?$basic_string@DU?$char_traits@D@std@@V?$allocator@D@2@@std@@QEAA@XZ DD imagerel $LN38
	DD	imagerel $LN38+95
	DD	imagerel $unwind$??1?$basic_string@DU?$char_traits@D@std@@V?$allocator@D@2@@std@@QEAA@XZ
pdata	ENDS
;	COMDAT pdata
pdata	SEGMENT
$pdata$??0?$basic_stringstream@DU?$char_traits@D@std@@V?$allocator@D@2@@std@@QEAA@XZ DD imagerel $LN13
	DD	imagerel $LN13+181
	DD	imagerel $unwind$??0?$basic_stringstream@DU?$char_traits@D@std@@V?$allocator@D@2@@std@@QEAA@XZ
pdata	ENDS
;	COMDAT pdata
pdata	SEGMENT
$pdata$?dtor$0@?0???0?$basic_stringstream@DU?$char_traits@D@std@@V?$allocator@D@2@@std@@QEAA@XZ@4HA DD imagerel ?dtor$0@?0???0?$basic_stringstream@DU?$char_traits@D@std@@V?$allocator@D@2@@std@@QEAA@XZ@4HA
	DD	imagerel ?dtor$0@?0???0?$basic_stringstream@DU?$char_traits@D@std@@V?$allocator@D@2@@std@@QEAA@XZ@4HA+46
	DD	imagerel $unwind$?dtor$0@?0???0?$basic_stringstream@DU?$char_traits@D@std@@V?$allocator@D@2@@std@@QEAA@XZ@4HA
pdata	ENDS
;	COMDAT pdata
pdata	SEGMENT
$pdata$??1?$basic_stringstream@DU?$char_traits@D@std@@V?$allocator@D@2@@std@@UEAA@XZ DD imagerel $LN5
	DD	imagerel $LN5+86
	DD	imagerel $unwind$??1?$basic_stringstream@DU?$char_traits@D@std@@V?$allocator@D@2@@std@@UEAA@XZ
pdata	ENDS
;	COMDAT pdata
pdata	SEGMENT
$pdata$?str@?$basic_stringstream@DU?$char_traits@D@std@@V?$allocator@D@2@@std@@QEGBA?AV?$basic_string@DU?$char_traits@D@std@@V?$allocator@D@2@@2@XZ DD imagerel $LN93
	DD	imagerel $LN93+215
	DD	imagerel $unwind$?str@?$basic_stringstream@DU?$char_traits@D@std@@V?$allocator@D@2@@std@@QEGBA?AV?$basic_string@DU?$char_traits@D@std@@V?$allocator@D@2@@2@XZ
pdata	ENDS
;	COMDAT pdata
pdata	SEGMENT
$pdata$?dtor$1@?0??str@?$basic_stringstream@DU?$char_traits@D@std@@V?$allocator@D@2@@std@@QEGBA?AV?$basic_string@DU?$char_traits@D@std@@V?$allocator@D@2@@2@XZ@4HA DD imagerel ?dtor$1@?0??str@?$basic_stringstream@DU?$char_traits@D@std@@V?$allocator@D@2@@std@@QEGBA?AV?$basic_string@DU?$char_traits@D@std@@V?$allocator@D@2@@2@XZ@4HA
	DD	imagerel ?dtor$1@?0??str@?$basic_stringstream@DU?$char_traits@D@std@@V?$allocator@D@2@@std@@QEGBA?AV?$basic_string@DU?$char_traits@D@std@@V?$allocator@D@2@@2@XZ@4HA+38
	DD	imagerel $unwind$?dtor$1@?0??str@?$basic_stringstream@DU?$char_traits@D@std@@V?$allocator@D@2@@std@@QEGBA?AV?$basic_string@DU?$char_traits@D@std@@V?$allocator@D@2@@2@XZ@4HA
pdata	ENDS
;	COMDAT pdata
pdata	SEGMENT
$pdata$??1?$basic_stringbuf@DU?$char_traits@D@std@@V?$allocator@D@2@@std@@UEAA@XZ DD imagerel $LN58
	DD	imagerel $LN58+183
	DD	imagerel $unwind$??1?$basic_stringbuf@DU?$char_traits@D@std@@V?$allocator@D@2@@std@@UEAA@XZ
pdata	ENDS
;	COMDAT pdata
pdata	SEGMENT
$pdata$?overflow@?$basic_stringbuf@DU?$char_traits@D@std@@V?$allocator@D@2@@std@@MEAAHH@Z DD imagerel $LN134
	DD	imagerel $LN134+507
	DD	imagerel $unwind$?overflow@?$basic_stringbuf@DU?$char_traits@D@std@@V?$allocator@D@2@@std@@MEAAHH@Z
pdata	ENDS
;	COMDAT pdata
pdata	SEGMENT
$pdata$?underflow@?$basic_stringbuf@DU?$char_traits@D@std@@V?$allocator@D@2@@std@@MEAAHXZ DD imagerel $LN39
	DD	imagerel $LN39+122
	DD	imagerel $unwind$?underflow@?$basic_stringbuf@DU?$char_traits@D@std@@V?$allocator@D@2@@std@@MEAAHXZ
pdata	ENDS
;	COMDAT pdata
pdata	SEGMENT
$pdata$?seekoff@?$basic_stringbuf@DU?$char_traits@D@std@@V?$allocator@D@2@@std@@MEAA?AV?$fpos@U_Mbstatet@@@2@_JHH@Z DD imagerel $LN92
	DD	imagerel $LN92+397
	DD	imagerel $unwind$?seekoff@?$basic_stringbuf@DU?$char_traits@D@std@@V?$allocator@D@2@@std@@MEAA?AV?$fpos@U_Mbstatet@@@2@_JHH@Z
pdata	ENDS
;	COMDAT pdata
pdata	SEGMENT
$pdata$?seekpos@?$basic_stringbuf@DU?$char_traits@D@std@@V?$allocator@D@2@@std@@MEAA?AV?$fpos@U_Mbstatet@@@2@V32@H@Z DD imagerel $LN71
	DD	imagerel $LN71+300
	DD	imagerel $unwind$?seekpos@?$basic_stringbuf@DU?$char_traits@D@std@@V?$allocator@D@2@@std@@MEAA?AV?$fpos@U_Mbstatet@@@2@V32@H@Z
pdata	ENDS
;	COMDAT pdata
pdata	SEGMENT
$pdata$main DD	imagerel $LN1593
	DD	imagerel $LN1593+3846
	DD	imagerel $unwind$main
pdata	ENDS
;	COMDAT pdata
pdata	SEGMENT
$pdata$?InjectCode@@YAXPEAX@Z DD imagerel ?InjectCode@@YAXPEAX@Z
	DD	imagerel ?InjectCode@@YAXPEAX@Z+767
	DD	imagerel $unwind$?InjectCode@@YAXPEAX@Z
pdata	ENDS
;	COMDAT pdata
pdata	SEGMENT
$pdata$?FindProcessIdRetry@@YAKPEB_WH@Z DD imagerel ?FindProcessIdRetry@@YAKPEB_WH@Z
	DD	imagerel ?FindProcessIdRetry@@YAKPEB_WH@Z+690
	DD	imagerel $unwind$?FindProcessIdRetry@@YAKPEB_WH@Z
pdata	ENDS
;	COMDAT pdata
pdata	SEGMENT
$pdata$?FindProcessId@@YAKPEB_W@Z DD imagerel ?FindProcessId@@YAKPEB_W@Z
	DD	imagerel ?FindProcessId@@YAKPEB_W@Z+187
	DD	imagerel $unwind$?FindProcessId@@YAKPEB_W@Z
pdata	ENDS
;	COMDAT pdata
pdata	SEGMENT
$pdata$?HookedLoadLibraryW@@YAPEAUHINSTANCE__@@PEB_W@Z DD imagerel ?HookedLoadLibraryW@@YAPEAUHINSTANCE__@@PEB_W@Z
	DD	imagerel ?HookedLoadLibraryW@@YAPEAUHINSTANCE__@@PEB_W@Z+105
	DD	imagerel $unwind$?HookedLoadLibraryW@@YAPEAUHINSTANCE__@@PEB_W@Z
pdata	ENDS
;	COMDAT pdata
pdata	SEGMENT
$pdata$?HookedLoadLibraryA@@YAPEAUHINSTANCE__@@PEBD@Z DD imagerel ?HookedLoadLibraryA@@YAPEAUHINSTANCE__@@PEBD@Z
	DD	imagerel ?HookedLoadLibraryA@@YAPEAUHINSTANCE__@@PEBD@Z+112
	DD	imagerel $unwind$?HookedLoadLibraryA@@YAPEAUHINSTANCE__@@PEBD@Z
pdata	ENDS
;	COMDAT pdata
pdata	SEGMENT
$pdata$?HookedOpenThread@@YAPEAXKHK@Z DD imagerel ?HookedOpenThread@@YAPEAXKHK@Z
	DD	imagerel ?HookedOpenThread@@YAPEAXKHK@Z+204
	DD	imagerel $unwind$?HookedOpenThread@@YAPEAXKHK@Z
pdata	ENDS
;	COMDAT pdata
pdata	SEGMENT
$pdata$?HookedCreateThread@@YAPEAXPEAU_SECURITY_ATTRIBUTES@@_KP6AKPEAX@Z2KPEAK@Z DD imagerel ?HookedCreateThread@@YAPEAXPEAU_SECURITY_ATTRIBUTES@@_KP6AKPEAX@Z2KPEAK@Z
	DD	imagerel ?HookedCreateThread@@YAPEAXPEAU_SECURITY_ATTRIBUTES@@_KP6AKPEAX@Z2KPEAK@Z+150
	DD	imagerel $unwind$?HookedCreateThread@@YAPEAXPEAU_SECURITY_ATTRIBUTES@@_KP6AKPEAX@Z2KPEAK@Z
pdata	ENDS
;	COMDAT pdata
pdata	SEGMENT
$pdata$?HookedSetWindowsHookExW@@YAPEAUHHOOK__@@HP6A_JH_K_J@ZPEAUHINSTANCE__@@K@Z DD imagerel ?HookedSetWindowsHookExW@@YAPEAUHHOOK__@@HP6A_JH_K_J@ZPEAUHINSTANCE__@@K@Z
	DD	imagerel ?HookedSetWindowsHookExW@@YAPEAUHHOOK__@@HP6A_JH_K_J@ZPEAUHINSTANCE__@@K@Z+206
	DD	imagerel $unwind$?HookedSetWindowsHookExW@@YAPEAUHHOOK__@@HP6A_JH_K_J@ZPEAUHINSTANCE__@@K@Z
pdata	ENDS
;	COMDAT pdata
pdata	SEGMENT
$pdata$?HookedSetWindowsHookExA@@YAPEAUHHOOK__@@HP6A_JH_K_J@ZPEAUHINSTANCE__@@K@Z DD imagerel ?HookedSetWindowsHookExA@@YAPEAUHHOOK__@@HP6A_JH_K_J@ZPEAUHINSTANCE__@@K@Z
	DD	imagerel ?HookedSetWindowsHookExA@@YAPEAUHHOOK__@@HP6A_JH_K_J@ZPEAUHINSTANCE__@@K@Z+206
	DD	imagerel $unwind$?HookedSetWindowsHookExA@@YAPEAUHHOOK__@@HP6A_JH_K_J@ZPEAUHINSTANCE__@@K@Z
pdata	ENDS
;	COMDAT pdata
pdata	SEGMENT
$pdata$?HookedCreateRemoteThread@@YAPEAXPEAXPEAU_SECURITY_ATTRIBUTES@@_KP6AK0@Z0KPEAK@Z DD imagerel ?HookedCreateRemoteThread@@YAPEAXPEAXPEAU_SECURITY_ATTRIBUTES@@_KP6AK0@Z0KPEAK@Z
	DD	imagerel ?HookedCreateRemoteThread@@YAPEAXPEAXPEAU_SECURITY_ATTRIBUTES@@_KP6AK0@Z0KPEAK@Z+203
	DD	imagerel $unwind$?HookedCreateRemoteThread@@YAPEAXPEAXPEAU_SECURITY_ATTRIBUTES@@_KP6AK0@Z0KPEAK@Z
pdata	ENDS
;	COMDAT pdata
pdata	SEGMENT
$pdata$??_D?$basic_stringstream@DU?$char_traits@D@std@@V?$allocator@D@2@@std@@QEAAXXZ DD imagerel $LN8
	DD	imagerel $LN8+91
	DD	imagerel $unwind$??_D?$basic_stringstream@DU?$char_traits@D@std@@V?$allocator@D@2@@std@@QEAAXXZ
pdata	ENDS
;	COMDAT pdata
pdata	SEGMENT
$pdata$?HookedWriteProcessMemory@@YAHPEAX0PEBX_KPEA_K@Z DD imagerel ?HookedWriteProcessMemory@@YAHPEAX0PEBX_KPEA_K@Z
	DD	imagerel ?HookedWriteProcessMemory@@YAHPEAX0PEBX_KPEA_K@Z+1054
	DD	imagerel $unwind$?HookedWriteProcessMemory@@YAHPEAX0PEBX_KPEA_K@Z
pdata	ENDS
;	COMDAT pdata
pdata	SEGMENT
$pdata$?dtor$2@?0??HookedWriteProcessMemory@@YAHPEAX0PEBX_KPEA_K@Z@4HA DD imagerel ?dtor$2@?0??HookedWriteProcessMemory@@YAHPEAX0PEBX_KPEA_K@Z@4HA
	DD	imagerel ?dtor$2@?0??HookedWriteProcessMemory@@YAHPEAX0PEBX_KPEA_K@Z@4HA+49
	DD	imagerel $unwind$?dtor$2@?0??HookedWriteProcessMemory@@YAHPEAX0PEBX_KPEA_K@Z@4HA
pdata	ENDS
;	COMDAT pdata
pdata	SEGMENT
$pdata$?dtor$8@?0??HookedWriteProcessMemory@@YAHPEAX0PEBX_KPEA_K@Z@4HA DD imagerel ?dtor$8@?0??HookedWriteProcessMemory@@YAHPEAX0PEBX_KPEA_K@Z@4HA
	DD	imagerel ?dtor$8@?0??HookedWriteProcessMemory@@YAHPEAX0PEBX_KPEA_K@Z@4HA+38
	DD	imagerel $unwind$?dtor$8@?0??HookedWriteProcessMemory@@YAHPEAX0PEBX_KPEA_K@Z@4HA
pdata	ENDS
;	COMDAT pdata
pdata	SEGMENT
$pdata$?catch$21@?0??HookedWriteProcessMemory@@YAHPEAX0PEBX_KPEA_K@Z@4HA DD imagerel ?catch$21@?0??HookedWriteProcessMemory@@YAHPEAX0PEBX_KPEA_K@Z@4HA
	DD	imagerel ?catch$21@?0??HookedWriteProcessMemory@@YAHPEAX0PEBX_KPEA_K@Z@4HA+98
	DD	imagerel $unwind$?catch$21@?0??HookedWriteProcessMemory@@YAHPEAX0PEBX_KPEA_K@Z@4HA
pdata	ENDS
;	COMDAT pdata
pdata	SEGMENT
$pdata$?HookedVirtualAllocEx@@YAPEAXPEAX0_KKK@Z DD imagerel ?HookedVirtualAllocEx@@YAPEAXPEAX0_KKK@Z
	DD	imagerel ?HookedVirtualAllocEx@@YAPEAXPEAX0_KKK@Z+244
	DD	imagerel $unwind$?HookedVirtualAllocEx@@YAPEAXPEAX0_KKK@Z
pdata	ENDS
;	COMDAT pdata
pdata	SEGMENT
$pdata$?HookedVirtualAlloc@@YAPEAXPEAX_KKK@Z DD imagerel ?HookedVirtualAlloc@@YAPEAXPEAX_KKK@Z
	DD	imagerel ?HookedVirtualAlloc@@YAPEAXPEAX_KKK@Z+239
	DD	imagerel $unwind$?HookedVirtualAlloc@@YAPEAXPEAX_KKK@Z
pdata	ENDS
;	COMDAT pdata
pdata	SEGMENT
$pdata$?PrintSourceProcess@@YAXXZ DD imagerel ?PrintSourceProcess@@YAXXZ
	DD	imagerel ?PrintSourceProcess@@YAXXZ+218
	DD	imagerel $unwind$?PrintSourceProcess@@YAXXZ
pdata	ENDS
;	COMDAT pdata
pdata	SEGMENT
$pdata$?CheckMHResult@@YAXW4MH_STATUS@@AEBV?$basic_string@DU?$char_traits@D@std@@V?$allocator@D@2@@std@@@Z DD imagerel ?CheckMHResult@@YAXW4MH_STATUS@@AEBV?$basic_string@DU?$char_traits@D@std@@V?$allocator@D@2@@std@@@Z
	DD	imagerel ?CheckMHResult@@YAXW4MH_STATUS@@AEBV?$basic_string@DU?$char_traits@D@std@@V?$allocator@D@2@@std@@@Z+114
	DD	imagerel $unwind$?CheckMHResult@@YAXW4MH_STATUS@@AEBV?$basic_string@DU?$char_traits@D@std@@V?$allocator@D@2@@std@@@Z
pdata	ENDS
;	COMDAT pdata
pdata	SEGMENT
$pdata$?now@steady_clock@chrono@std@@SA?AV?$time_point@Usteady_clock@chrono@std@@V?$duration@_JU?$ratio@$00$0DLJKMKAA@@std@@@23@@23@XZ DD imagerel $LN25
	DD	imagerel $LN25+218
	DD	imagerel $unwind$?now@steady_clock@chrono@std@@SA?AV?$time_point@Usteady_clock@chrono@std@@V?$duration@_JU?$ratio@$00$0DLJKMKAA@@std@@@23@@23@XZ
pdata	ENDS
;	COMDAT pdata
pdata	SEGMENT
$pdata$?_Getfacet@locale@std@@QEBAPEBVfacet@12@_K@Z DD imagerel $LN13
	DD	imagerel $LN13+98
	DD	imagerel $unwind$?_Getfacet@locale@std@@QEBAPEBVfacet@12@_K@Z
pdata	ENDS
;	COMDAT pdata
pdata	SEGMENT
$pdata$??1locale@std@@QEAA@XZ DD imagerel $LN8
	DD	imagerel $LN8+47
	DD	imagerel $unwind$??1locale@std@@QEAA@XZ
pdata	ENDS
;	COMDAT pdata
pdata	SEGMENT
$pdata$??0bad_cast@std@@QEAA@AEBV01@@Z DD imagerel $LN7
	DD	imagerel $LN7+61
	DD	imagerel $unwind$??0bad_cast@std@@QEAA@AEBV01@@Z
pdata	ENDS
;	COMDAT pdata
pdata	SEGMENT
$pdata$?_Throw_bad_cast@std@@YAXXZ DD imagerel $LN4
	DD	imagerel $LN4+32
	DD	imagerel $unwind$?_Throw_bad_cast@std@@YAXXZ
pdata	ENDS
;	COMDAT pdata
pdata	SEGMENT
$pdata$??_Gbad_cast@std@@UEAAPEAXI@Z DD imagerel $LN13
	DD	imagerel $LN13+67
	DD	imagerel $unwind$??_Gbad_cast@std@@UEAAPEAXI@Z
pdata	ENDS
;	COMDAT pdata
pdata	SEGMENT
$pdata$?_Xlen_string@std@@YAXXZ DD imagerel $LN4
	DD	imagerel $LN4+18
	DD	imagerel $unwind$?_Xlen_string@std@@YAXXZ
pdata	ENDS
;	COMDAT pdata
pdata	SEGMENT
$pdata$?_Adjust_manually_vector_aligned@std@@YAXAEAPEAXAEA_K@Z DD imagerel $LN13
	DD	imagerel $LN13+43
	DD	imagerel $unwind$?_Adjust_manually_vector_aligned@std@@YAXAEAPEAXAEA_K@Z
pdata	ENDS
;	COMDAT pdata
pdata	SEGMENT
$pdata$??0bad_alloc@std@@QEAA@AEBV01@@Z DD imagerel $LN7
	DD	imagerel $LN7+61
	DD	imagerel $unwind$??0bad_alloc@std@@QEAA@AEBV01@@Z
pdata	ENDS
;	COMDAT pdata
pdata	SEGMENT
$pdata$??0bad_array_new_length@std@@QEAA@AEBV01@@Z DD imagerel $LN10
	DD	imagerel $LN10+61
	DD	imagerel $unwind$??0bad_array_new_length@std@@QEAA@AEBV01@@Z
pdata	ENDS
;	COMDAT pdata
pdata	SEGMENT
$pdata$?_Throw_bad_array_new_length@std@@YAXXZ DD imagerel $LN4
	DD	imagerel $LN4+32
	DD	imagerel $unwind$?_Throw_bad_array_new_length@std@@YAXXZ
pdata	ENDS
;	COMDAT pdata
pdata	SEGMENT
$pdata$??_Gbad_array_new_length@std@@UEAAPEAXI@Z DD imagerel $LN16
	DD	imagerel $LN16+67
	DD	imagerel $unwind$??_Gbad_array_new_length@std@@UEAAPEAXI@Z
pdata	ENDS
;	COMDAT pdata
pdata	SEGMENT
$pdata$??_Gbad_alloc@std@@UEAAPEAXI@Z DD imagerel $LN13
	DD	imagerel $LN13+67
	DD	imagerel $unwind$??_Gbad_alloc@std@@UEAAPEAXI@Z
pdata	ENDS
;	COMDAT pdata
pdata	SEGMENT
$pdata$??_Gexception@std@@UEAAPEAXI@Z DD imagerel $LN10
	DD	imagerel $LN10+67
	DD	imagerel $unwind$??_Gexception@std@@UEAAPEAXI@Z
pdata	ENDS
;	COMDAT pdata
pdata	SEGMENT
$pdata$??0exception@std@@QEAA@AEBV01@@Z DD imagerel $LN5
	DD	imagerel $LN5+51
	DD	imagerel $unwind$??0exception@std@@QEAA@AEBV01@@Z
pdata	ENDS
;	COMDAT pdata
pdata	SEGMENT
$pdata$wprintf DD imagerel $LN6
	DD	imagerel $LN6+82
	DD	imagerel $unwind$wprintf
pdata	ENDS
;	COMDAT pdata
pdata	SEGMENT
$pdata$_vfwprintf_l DD imagerel $LN4
	DD	imagerel $LN4+68
	DD	imagerel $unwind$_vfwprintf_l
pdata	ENDS
;	COMDAT __real@43088e6d68b00000
CONST	SEGMENT
__real@43088e6d68b00000 DQ 043088e6d68b00000r	; 8.64e+14
CONST	ENDS
;	COMDAT __real@41cdcd6500000000
CONST	SEGMENT
__real@41cdcd6500000000 DQ 041cdcd6500000000r	; 1e+09
CONST	ENDS
;	COMDAT xdata
xdata	SEGMENT
$unwind$_vfwprintf_l DD 060f01H
	DD	09640fH
	DD	08340fH
	DD	0700b520fH
xdata	ENDS
;	COMDAT xdata
xdata	SEGMENT
$unwind$wprintf DD 031a01H
	DD	07016621aH
	DD	03015H
xdata	ENDS
;	COMDAT xdata
xdata	SEGMENT
$unwind$??0exception@std@@QEAA@AEBV01@@Z DD 020601H
	DD	030023206H
xdata	ENDS
;	COMDAT xdata
xdata	SEGMENT
$unwind$??_Gexception@std@@UEAAPEAXI@Z DD 040a01H
	DD	06340aH
	DD	07006320aH
xdata	ENDS
;	COMDAT xdata
xdata	SEGMENT
$unwind$??_Gbad_alloc@std@@UEAAPEAXI@Z DD 040a01H
	DD	06340aH
	DD	07006320aH
xdata	ENDS
;	COMDAT xdata
xdata	SEGMENT
$unwind$??_Gbad_array_new_length@std@@UEAAPEAXI@Z DD 040a01H
	DD	06340aH
	DD	07006320aH
xdata	ENDS
;	COMDAT xdata
xdata	SEGMENT
$unwind$?_Throw_bad_array_new_length@std@@YAXXZ DD 010401H
	DD	08204H
xdata	ENDS
;	COMDAT xdata
xdata	SEGMENT
$unwind$??0bad_array_new_length@std@@QEAA@AEBV01@@Z DD 020601H
	DD	030023206H
xdata	ENDS
;	COMDAT xdata
xdata	SEGMENT
$unwind$??0bad_alloc@std@@QEAA@AEBV01@@Z DD 020601H
	DD	030023206H
xdata	ENDS
;	COMDAT xdata
xdata	SEGMENT
$unwind$?_Adjust_manually_vector_aligned@std@@YAXAEAPEAXAEA_K@Z DD 010401H
	DD	04204H
xdata	ENDS
;	COMDAT xdata
xdata	SEGMENT
$unwind$?_Xlen_string@std@@YAXXZ DD 010401H
	DD	04204H
xdata	ENDS
;	COMDAT xdata
xdata	SEGMENT
$unwind$??_Gbad_cast@std@@UEAAPEAXI@Z DD 040a01H
	DD	06340aH
	DD	07006320aH
xdata	ENDS
;	COMDAT xdata
xdata	SEGMENT
$unwind$?_Throw_bad_cast@std@@YAXXZ DD 010401H
	DD	08204H
xdata	ENDS
;	COMDAT xdata
xdata	SEGMENT
$unwind$??0bad_cast@std@@QEAA@AEBV01@@Z DD 020601H
	DD	030023206H
xdata	ENDS
;	COMDAT xdata
xdata	SEGMENT
$unwind$??1locale@std@@QEAA@XZ DD 010401H
	DD	04204H
xdata	ENDS
;	COMDAT xdata
xdata	SEGMENT
$unwind$?_Getfacet@locale@std@@QEBAPEBVfacet@12@_K@Z DD 040a01H
	DD	06340aH
	DD	07006320aH
xdata	ENDS
;	COMDAT xdata
xdata	SEGMENT
$unwind$?now@steady_clock@chrono@std@@SA?AV?$time_point@Usteady_clock@chrono@std@@V?$duration@_JU?$ratio@$00$0DLJKMKAA@@std@@@23@@23@XZ DD 040a01H
	DD	06340aH
	DD	07006320aH
xdata	ENDS
;	COMDAT xdata
xdata	SEGMENT
$unwind$?CheckMHResult@@YAXW4MH_STATUS@@AEBV?$basic_string@DU?$char_traits@D@std@@V?$allocator@D@2@@std@@@Z DD 040e01H
	DD	06340eH
	DD	0700a320eH
xdata	ENDS
;	COMDAT xdata
xdata	SEGMENT
$unwind$?PrintSourceProcess@@YAXXZ DD 051f19H
	DD	04c340dH
	DD	04a010dH
	DD	07006H
	DD	imagerel __GSHandlerCheck
	DD	0240H
xdata	ENDS
;	COMDAT xdata
xdata	SEGMENT
$unwind$?HookedVirtualAlloc@@YAPEAXPEAX_KKK@Z DD 081401H
	DD	086414H
	DD	075414H
	DD	063414H
	DD	070103214H
xdata	ENDS
;	COMDAT xdata
xdata	SEGMENT
$unwind$?HookedVirtualAllocEx@@YAPEAXPEAX0_KKK@Z DD 081401H
	DD	0a6414H
	DD	095414H
	DD	083414H
	DD	070105214H
xdata	ENDS
;	COMDAT xdata
xdata	SEGMENT
$unwind$?catch$21@?0??HookedWriteProcessMemory@@YAHPEAX0PEBX_KPEA_K@Z@4HA DD 030b01H
	DD	05007620bH
	DD	03006H
xdata	ENDS
;	COMDAT xdata
xdata	SEGMENT
$unwind$?dtor$8@?0??HookedWriteProcessMemory@@YAHPEAX0PEBX_KPEA_K@Z@4HA DD 020601H
	DD	050023206H
xdata	ENDS
;	COMDAT xdata
xdata	SEGMENT
$unwind$?dtor$2@?0??HookedWriteProcessMemory@@YAHPEAX0PEBX_KPEA_K@Z@4HA DD 020601H
	DD	050023206H
xdata	ENDS
;	COMDAT xdata
xdata	SEGMENT
$ip2state$?HookedWriteProcessMemory@@YAHPEAX0PEBX_KPEA_K@Z DB 010H
	DB	0a2H
	DB	02H
	DB	0f5H, 03H
	DB	04H
	DB	'F'
	DB	06H
	DB	0bcH
	DB	08H
	DB	'i', 02H
	DB	0aH
	DB	0dH, 03H
	DB	0cH
	DB	'^'
	DB	08H
	DB	0a9H, 02H
	DB	02H
xdata	ENDS
;	COMDAT xdata
xdata	SEGMENT
$handlerMap$?HookedWriteProcessMemory@@YAHPEAX0PEBX_KPEA_K@Z DB 02H
	DB	017H
	DB	012H
	DD	imagerel ??_R0?AVexception@std@@@8
	DB	0b0H
	DD	imagerel ?catch$21@?0??HookedWriteProcessMemory@@YAHPEAX0PEBX_KPEA_K@Z@4HA
	DB	0c9H, 0fH
xdata	ENDS
;	COMDAT xdata
xdata	SEGMENT
$tryMap$?HookedWriteProcessMemory@@YAHPEAX0PEBX_KPEA_K@Z DB 02H
	DB	00H
	DB	0aH
	DB	0cH
	DD	imagerel $handlerMap$?HookedWriteProcessMemory@@YAHPEAX0PEBX_KPEA_K@Z
xdata	ENDS
;	COMDAT xdata
xdata	SEGMENT
$stateUnwindMap$?HookedWriteProcessMemory@@YAHPEAX0PEBX_KPEA_K@Z DB 0eH
	DB	08H
	DB	0eH
	DD	imagerel ?dtor$2@?0??HookedWriteProcessMemory@@YAHPEAX0PEBX_KPEA_K@Z@4HA
	DB	02eH
	DD	imagerel ?dtor$3@?0??HookedWriteProcessMemory@@YAHPEAX0PEBX_KPEA_K@Z@4HA
	DB	05aH
	DD	imagerel ??_D?$basic_stringstream@DU?$char_traits@D@std@@V?$allocator@D@2@@std@@QEAAXXZ
	DB	01H
	DB	02H
	DB	03eH
	DD	imagerel ?dtor$8@?0??HookedWriteProcessMemory@@YAHPEAX0PEBX_KPEA_K@Z@4HA
	DB	062H
	DD	imagerel ??1?$basic_string@DU?$char_traits@D@std@@V?$allocator@D@2@@std@@QEAA@XZ
	DB	070H
	DB	0f0H
xdata	ENDS
;	COMDAT xdata
xdata	SEGMENT
$cppxdata$?HookedWriteProcessMemory@@YAHPEAX0PEBX_KPEA_K@Z DB 038H
	DD	imagerel $stateUnwindMap$?HookedWriteProcessMemory@@YAHPEAX0PEBX_KPEA_K@Z
	DD	imagerel $tryMap$?HookedWriteProcessMemory@@YAHPEAX0PEBX_KPEA_K@Z
	DD	imagerel $ip2state$?HookedWriteProcessMemory@@YAHPEAX0PEBX_KPEA_K@Z
xdata	ENDS
;	COMDAT xdata
xdata	SEGMENT
$unwind$?HookedWriteProcessMemory@@YAHPEAX0PEBX_KPEA_K@Z DD 092519H
	DD	0320113H
	DD	0e00af00cH
	DD	0c006d008H
	DD	060037004H
	DD	03002H
	DD	imagerel __GSHandlerCheck_EH4
	DD	imagerel $cppxdata$?HookedWriteProcessMemory@@YAHPEAX0PEBX_KPEA_K@Z
	DD	0183H
xdata	ENDS
;	COMDAT xdata
xdata	SEGMENT
$unwind$??_D?$basic_stringstream@DU?$char_traits@D@std@@V?$allocator@D@2@@std@@QEAAXXZ DD 020601H
	DD	030023206H
xdata	ENDS
;	COMDAT xdata
xdata	SEGMENT
$unwind$?HookedCreateRemoteThread@@YAPEAXPEAXPEAU_SECURITY_ATTRIBUTES@@_KP6AK0@Z0KPEAK@Z DD 081401H
	DD	0c6414H
	DD	0b5414H
	DD	0a3414H
	DD	070107214H
xdata	ENDS
;	COMDAT xdata
xdata	SEGMENT
$unwind$?HookedSetWindowsHookExA@@YAPEAUHHOOK__@@HP6A_JH_K_J@ZPEAUHINSTANCE__@@K@Z DD 0a1a01H
	DD	09741aH
	DD	08641aH
	DD	07541aH
	DD	06341aH
	DD	0e016321aH
xdata	ENDS
;	COMDAT xdata
xdata	SEGMENT
$unwind$?HookedSetWindowsHookExW@@YAPEAUHHOOK__@@HP6A_JH_K_J@ZPEAUHINSTANCE__@@K@Z DD 0a1a01H
	DD	09741aH
	DD	08641aH
	DD	07541aH
	DD	06341aH
	DD	0e016321aH
xdata	ENDS
;	COMDAT xdata
xdata	SEGMENT
$unwind$?HookedCreateThread@@YAPEAXPEAU_SECURITY_ATTRIBUTES@@_KP6AKPEAX@Z2KPEAK@Z DD 060f01H
	DD	09640fH
	DD	08340fH
	DD	0700b520fH
xdata	ENDS
;	COMDAT xdata
xdata	SEGMENT
$unwind$?HookedOpenThread@@YAPEAXKHK@Z DD 081401H
	DD	086414H
	DD	075414H
	DD	063414H
	DD	070103214H
xdata	ENDS
;	COMDAT xdata
xdata	SEGMENT
$unwind$?HookedLoadLibraryA@@YAPEAUHINSTANCE__@@PEBD@Z DD 040a01H
	DD	06340aH
	DD	07006320aH
xdata	ENDS
;	COMDAT xdata
xdata	SEGMENT
$unwind$?HookedLoadLibraryW@@YAPEAUHINSTANCE__@@PEB_W@Z DD 040a01H
	DD	06340aH
	DD	07006320aH
xdata	ENDS
;	COMDAT xdata
xdata	SEGMENT
$unwind$?FindProcessId@@YAKPEB_W@Z DD 051f19H
	DD	050340dH
	DD	04e010dH
	DD	07006H
	DD	imagerel __GSHandlerCheck
	DD	0260H
xdata	ENDS
;	COMDAT xdata
xdata	SEGMENT
$unwind$?FindProcessIdRetry@@YAKPEB_WH@Z DD 0f3619H
	DD	0296824H
	DD	05b7420H
	DD	05a6420H
	DD	0595420H
	DD	0583420H
	DD	0540120H
	DD	0e017f019H
	DD	0c015H
	DD	imagerel __GSHandlerCheck
	DD	0280H
xdata	ENDS
;	COMDAT xdata
xdata	SEGMENT
$unwind$?InjectCode@@YAXPEAX@Z DD 0baa19H
	DD	01d64aaH
	DD	01e3419H
	DD	0160119H
	DD	0e00bf00dH
	DD	07007c009H
	DD	05006H
	DD	imagerel __GSHandlerCheck
	DD	0a8H
xdata	ENDS
;	COMDAT xdata
xdata	SEGMENT
$ip2state$main DB '*'
	DB	0baH
	DB	00H
	DB	'}', 011H
	DB	02H
	DB	0c2H
	DB	00H
	DB	011H, 02H
	DB	04H
	DB	0c4H
	DB	00H
	DB	'Q', 02H
	DB	06H
	DB	0c4H
	DB	00H
	DB	'Q', 03H
	DB	08H
	DB	0c4H
	DB	00H
	DB	'5', 03H
	DB	0aH
	DB	0c2H
	DB	00H
	DB	'-', 03H
	DB	0cH
	DB	0c2H
	DB	00H
	DB	0bdH, 02H
	DB	0eH
	DB	0c2H
	DB	00H
	DB	0eeH
	DB	010H
	DB	0c2H
	DB	00H
	DB	0e2H
	DB	012H
	DB	0c2H
	DB	00H
	DB	0daH
	DB	014H
	DB	0c2H
	DB	00H
xdata	ENDS
;	COMDAT xdata
xdata	SEGMENT
$stateUnwindMap$main DB 014H
	DB	0aH
	DD	imagerel ??1?$basic_string@DU?$char_traits@D@std@@V?$allocator@D@2@@std@@QEAA@XZ
	DB	01H
	DB	03H
	DB	042H
	DD	imagerel ??1?$basic_string@DU?$char_traits@D@std@@V?$allocator@D@2@@std@@QEAA@XZ
	DB	040H
	DB	072H
	DD	imagerel ??1?$basic_string@DU?$char_traits@D@std@@V?$allocator@D@2@@std@@QEAA@XZ
	DB	080H
	DB	0a2H
	DD	imagerel ??1?$basic_string@DU?$char_traits@D@std@@V?$allocator@D@2@@std@@QEAA@XZ
	DB	0c0H
	DB	0d2H
	DD	imagerel ??1?$basic_string@DU?$char_traits@D@std@@V?$allocator@D@2@@std@@QEAA@XZ
	DB	01H
	DB	02H
	DB	015H
	DB	02H
	DD	imagerel ??1?$basic_string@DU?$char_traits@D@std@@V?$allocator@D@2@@std@@QEAA@XZ
	DB	081H
	DB	02H
	DB	095H
	DB	02H
	DD	imagerel ??1?$basic_string@DU?$char_traits@D@std@@V?$allocator@D@2@@std@@QEAA@XZ
	DB	081H
	DB	03H
	DB	015H
	DB	03H
	DD	imagerel ??1?$basic_string@DU?$char_traits@D@std@@V?$allocator@D@2@@std@@QEAA@XZ
	DB	01H
	DB	04H
	DB	095H
	DB	03H
	DD	imagerel ??1?$basic_string@DU?$char_traits@D@std@@V?$allocator@D@2@@std@@QEAA@XZ
	DB	081H
	DB	04H
	DB	015H
	DB	04H
	DD	imagerel ??1?$basic_string@DU?$char_traits@D@std@@V?$allocator@D@2@@std@@QEAA@XZ
	DB	01H
	DB	05H
xdata	ENDS
;	COMDAT xdata
xdata	SEGMENT
$cppxdata$main DB 028H
	DD	imagerel $stateUnwindMap$main
	DD	imagerel $ip2state$main
xdata	ENDS
;	COMDAT xdata
xdata	SEGMENT
$unwind$main DD	0d3919H
	DD	079d428H
	DD	0787428H
	DD	0776428H
	DD	0763428H
	DD	0720128H
	DD	0e017f019H
	DD	05015H
	DD	imagerel __GSHandlerCheck_EH4
	DD	imagerel $cppxdata$main
	DD	0382H
xdata	ENDS
;	COMDAT xdata
xdata	SEGMENT
$unwind$?seekpos@?$basic_stringbuf@DU?$char_traits@D@std@@V?$allocator@D@2@@std@@MEAA?AV?$fpos@U_Mbstatet@@@2@V32@H@Z DD 073c01H
	DD	04e43cH
	DD	037437H
	DD	026432H
	DD	03002H
xdata	ENDS
;	COMDAT xdata
xdata	SEGMENT
$unwind$?seekoff@?$basic_stringbuf@DU?$char_traits@D@std@@V?$allocator@D@2@@std@@MEAA?AV?$fpos@U_Mbstatet@@@2@_JHH@Z DD 074001H
	DD	026440H
	DD	04540bH
	DD	03340bH
	DD	0700bH
xdata	ENDS
;	COMDAT xdata
xdata	SEGMENT
$unwind$?underflow@?$basic_stringbuf@DU?$char_traits@D@std@@V?$allocator@D@2@@std@@MEAAHXZ DD 010401H
	DD	02204H
xdata	ENDS
;	COMDAT xdata
xdata	SEGMENT
$unwind$?overflow@?$basic_stringbuf@DU?$char_traits@D@std@@V?$allocator@D@2@@std@@MEAAHH@Z DD 0a1601H
	DD	0c5416H
	DD	0b3416H
	DD	0f0123216H
	DD	0c00ee010H
	DD	0600b700cH
xdata	ENDS
;	COMDAT xdata
xdata	SEGMENT
$unwind$??1?$basic_stringbuf@DU?$char_traits@D@std@@V?$allocator@D@2@@std@@UEAA@XZ DD 020601H
	DD	030023206H
xdata	ENDS
;	COMDAT xdata
xdata	SEGMENT
$unwind$?dtor$1@?0??str@?$basic_stringstream@DU?$char_traits@D@std@@V?$allocator@D@2@@std@@QEGBA?AV?$basic_string@DU?$char_traits@D@std@@V?$allocator@D@2@@2@XZ@4HA DD 020601H
	DD	050023206H
xdata	ENDS
;	COMDAT xdata
xdata	SEGMENT
$ip2state$?str@?$basic_stringstream@DU?$char_traits@D@std@@V?$allocator@D@2@@std@@QEGBA?AV?$basic_string@DU?$char_traits@D@std@@V?$allocator@D@2@@2@XZ DB 02H
	DB	0dH, 03H
	DB	02H
xdata	ENDS
;	COMDAT xdata
xdata	SEGMENT
$stateUnwindMap$?str@?$basic_stringstream@DU?$char_traits@D@std@@V?$allocator@D@2@@std@@QEGBA?AV?$basic_string@DU?$char_traits@D@std@@V?$allocator@D@2@@2@XZ DB 02H
	DB	0eH
	DD	imagerel ?dtor$1@?0??str@?$basic_stringstream@DU?$char_traits@D@std@@V?$allocator@D@2@@std@@QEGBA?AV?$basic_string@DU?$char_traits@D@std@@V?$allocator@D@2@@2@XZ@4HA
xdata	ENDS
;	COMDAT xdata
xdata	SEGMENT
$cppxdata$?str@?$basic_stringstream@DU?$char_traits@D@std@@V?$allocator@D@2@@std@@QEGBA?AV?$basic_string@DU?$char_traits@D@std@@V?$allocator@D@2@@2@XZ DB 028H
	DD	imagerel $stateUnwindMap$?str@?$basic_stringstream@DU?$char_traits@D@std@@V?$allocator@D@2@@std@@QEGBA?AV?$basic_string@DU?$char_traits@D@std@@V?$allocator@D@2@@2@XZ
	DD	imagerel $ip2state$?str@?$basic_stringstream@DU?$char_traits@D@std@@V?$allocator@D@2@@std@@QEGBA?AV?$basic_string@DU?$char_traits@D@std@@V?$allocator@D@2@@2@XZ
xdata	ENDS
;	COMDAT xdata
xdata	SEGMENT
$unwind$?str@?$basic_stringstream@DU?$char_traits@D@std@@V?$allocator@D@2@@std@@QEGBA?AV?$basic_string@DU?$char_traits@D@std@@V?$allocator@D@2@@2@XZ DD 040a11H
	DD	0c340aH
	DD	07006920aH
	DD	imagerel __CxxFrameHandler4
	DD	imagerel $cppxdata$?str@?$basic_stringstream@DU?$char_traits@D@std@@V?$allocator@D@2@@std@@QEGBA?AV?$basic_string@DU?$char_traits@D@std@@V?$allocator@D@2@@2@XZ
xdata	ENDS
;	COMDAT xdata
xdata	SEGMENT
$unwind$??1?$basic_stringstream@DU?$char_traits@D@std@@V?$allocator@D@2@@std@@UEAA@XZ DD 020601H
	DD	030023206H
xdata	ENDS
;	COMDAT xdata
xdata	SEGMENT
$unwind$?dtor$0@?0???0?$basic_stringstream@DU?$char_traits@D@std@@V?$allocator@D@2@@std@@QEAA@XZ@4HA DD 020601H
	DD	050023206H
xdata	ENDS
;	COMDAT xdata
xdata	SEGMENT
$ip2state$??0?$basic_stringstream@DU?$char_traits@D@std@@V?$allocator@D@2@@std@@QEAA@XZ DB 06H
	DB	't'
	DB	00H
	DB	'2'
	DB	02H
	DB	'\'
	DB	04H
xdata	ENDS
;	COMDAT xdata
xdata	SEGMENT
$stateUnwindMap$??0?$basic_stringstream@DU?$char_traits@D@std@@V?$allocator@D@2@@std@@QEAA@XZ DB 04H
	DB	0eH
	DD	imagerel ?dtor$0@?0???0?$basic_stringstream@DU?$char_traits@D@std@@V?$allocator@D@2@@std@@QEAA@XZ@4HA
	DB	02eH
	DD	imagerel ?dtor$1@?0???0?$basic_stringstream@DU?$char_traits@D@std@@V?$allocator@D@2@@std@@QEAA@XZ@4HA
xdata	ENDS
;	COMDAT xdata
xdata	SEGMENT
$cppxdata$??0?$basic_stringstream@DU?$char_traits@D@std@@V?$allocator@D@2@@std@@QEAA@XZ DB 028H
	DD	imagerel $stateUnwindMap$??0?$basic_stringstream@DU?$char_traits@D@std@@V?$allocator@D@2@@std@@QEAA@XZ
	DD	imagerel $ip2state$??0?$basic_stringstream@DU?$char_traits@D@std@@V?$allocator@D@2@@std@@QEAA@XZ
xdata	ENDS
;	COMDAT xdata
xdata	SEGMENT
$unwind$??0?$basic_stringstream@DU?$char_traits@D@std@@V?$allocator@D@2@@std@@QEAA@XZ DD 041311H
	DD	083413H
	DD	0700f3213H
	DD	imagerel __CxxFrameHandler4
	DD	imagerel $cppxdata$??0?$basic_stringstream@DU?$char_traits@D@std@@V?$allocator@D@2@@std@@QEAA@XZ
xdata	ENDS
;	COMDAT xdata
xdata	SEGMENT
$unwind$??1?$basic_string@DU?$char_traits@D@std@@V?$allocator@D@2@@std@@QEAA@XZ DD 020601H
	DD	030023206H
xdata	ENDS
;	COMDAT xdata
xdata	SEGMENT
$unwind$??0?$basic_string@DU?$char_traits@D@std@@V?$allocator@D@2@@std@@QEAA@QEBD@Z DD 081201H
	DD	0b5412H
	DD	0a3412H
	DD	0e00e3212H
	DD	0600b700cH
xdata	ENDS
;	COMDAT xdata
xdata	SEGMENT
$unwind$??_G?$basic_stringbuf@DU?$char_traits@D@std@@V?$allocator@D@2@@std@@UEAAPEAXI@Z DD 040a01H
	DD	06340aH
	DD	07006320aH
xdata	ENDS
;	COMDAT xdata
xdata	SEGMENT
$unwind$??_G?$basic_stringstream@DU?$char_traits@D@std@@V?$allocator@D@2@@std@@UEAAPEAXI@Z DD 060f01H
	DD	07640fH
	DD	06340fH
	DD	0700b320fH
xdata	ENDS
;	COMDAT xdata
xdata	SEGMENT
$ip2state$??1sentry@?$basic_ostream@DU?$char_traits@D@std@@@std@@QEAA@XZ DB 02H
	DB	'h'
	DB	02H
xdata	ENDS
;	COMDAT xdata
xdata	SEGMENT
$stateUnwindMap$??1sentry@?$basic_ostream@DU?$char_traits@D@std@@@std@@QEAA@XZ DB 02H
	DB	0eH
	DD	imagerel __imp___std_terminate
xdata	ENDS
;	COMDAT xdata
xdata	SEGMENT
$cppxdata$??1sentry@?$basic_ostream@DU?$char_traits@D@std@@@std@@QEAA@XZ DB 068H
	DD	imagerel $stateUnwindMap$??1sentry@?$basic_ostream@DU?$char_traits@D@std@@@std@@QEAA@XZ
	DD	imagerel $ip2state$??1sentry@?$basic_ostream@DU?$char_traits@D@std@@@std@@QEAA@XZ
xdata	ENDS
;	COMDAT xdata
xdata	SEGMENT
$unwind$??1sentry@?$basic_ostream@DU?$char_traits@D@std@@@std@@QEAA@XZ DD 020619H
	DD	030023206H
	DD	imagerel __CxxFrameHandler4
	DD	imagerel $cppxdata$??1sentry@?$basic_ostream@DU?$char_traits@D@std@@@std@@QEAA@XZ
xdata	ENDS
;	COMDAT xdata
xdata	SEGMENT
$ip2state$??0sentry@?$basic_ostream@DU?$char_traits@D@std@@@std@@QEAA@AEAV12@@Z DB 04H
	DB	'X'
	DB	00H
	DB	'\'
	DB	02H
xdata	ENDS
;	COMDAT xdata
xdata	SEGMENT
$stateUnwindMap$??0sentry@?$basic_ostream@DU?$char_traits@D@std@@@std@@QEAA@AEAV12@@Z DB 02H
	DB	0cH
	DD	imagerel ??1_Sentry_base@?$basic_ostream@DU?$char_traits@D@std@@@std@@QEAA@XZ
	DB	060H
xdata	ENDS
;	COMDAT xdata
xdata	SEGMENT
$cppxdata$??0sentry@?$basic_ostream@DU?$char_traits@D@std@@@std@@QEAA@AEAV12@@Z DB 028H
	DD	imagerel $stateUnwindMap$??0sentry@?$basic_ostream@DU?$char_traits@D@std@@@std@@QEAA@AEAV12@@Z
	DD	imagerel $ip2state$??0sentry@?$basic_ostream@DU?$char_traits@D@std@@@std@@QEAA@AEAV12@@Z
xdata	ENDS
;	COMDAT xdata
xdata	SEGMENT
$unwind$??0sentry@?$basic_ostream@DU?$char_traits@D@std@@@std@@QEAA@AEAV12@@Z DD 040f11H
	DD	07340fH
	DD	0700b320fH
	DD	imagerel __CxxFrameHandler4
	DD	imagerel $cppxdata$??0sentry@?$basic_ostream@DU?$char_traits@D@std@@@std@@QEAA@AEAV12@@Z
xdata	ENDS
;	COMDAT xdata
xdata	SEGMENT
$ip2state$??1sentry@?$basic_ostream@_WU?$char_traits@_W@std@@@std@@QEAA@XZ DB 02H
	DB	'h'
	DB	02H
xdata	ENDS
;	COMDAT xdata
xdata	SEGMENT
$stateUnwindMap$??1sentry@?$basic_ostream@_WU?$char_traits@_W@std@@@std@@QEAA@XZ DB 02H
	DB	0eH
	DD	imagerel __imp___std_terminate
xdata	ENDS
;	COMDAT xdata
xdata	SEGMENT
$cppxdata$??1sentry@?$basic_ostream@_WU?$char_traits@_W@std@@@std@@QEAA@XZ DB 068H
	DD	imagerel $stateUnwindMap$??1sentry@?$basic_ostream@_WU?$char_traits@_W@std@@@std@@QEAA@XZ
	DD	imagerel $ip2state$??1sentry@?$basic_ostream@_WU?$char_traits@_W@std@@@std@@QEAA@XZ
xdata	ENDS
;	COMDAT xdata
xdata	SEGMENT
$unwind$??1sentry@?$basic_ostream@_WU?$char_traits@_W@std@@@std@@QEAA@XZ DD 020619H
	DD	030023206H
	DD	imagerel __CxxFrameHandler4
	DD	imagerel $cppxdata$??1sentry@?$basic_ostream@_WU?$char_traits@_W@std@@@std@@QEAA@XZ
xdata	ENDS
;	COMDAT xdata
xdata	SEGMENT
$ip2state$??0sentry@?$basic_ostream@_WU?$char_traits@_W@std@@@std@@QEAA@AEAV12@@Z DB 04H
	DB	'X'
	DB	00H
	DB	'\'
	DB	02H
xdata	ENDS
;	COMDAT xdata
xdata	SEGMENT
$stateUnwindMap$??0sentry@?$basic_ostream@_WU?$char_traits@_W@std@@@std@@QEAA@AEAV12@@Z DB 02H
	DB	0cH
	DD	imagerel ??1_Sentry_base@?$basic_ostream@_WU?$char_traits@_W@std@@@std@@QEAA@XZ
	DB	060H
xdata	ENDS
;	COMDAT xdata
xdata	SEGMENT
$cppxdata$??0sentry@?$basic_ostream@_WU?$char_traits@_W@std@@@std@@QEAA@AEAV12@@Z DB 028H
	DD	imagerel $stateUnwindMap$??0sentry@?$basic_ostream@_WU?$char_traits@_W@std@@@std@@QEAA@AEAV12@@Z
	DD	imagerel $ip2state$??0sentry@?$basic_ostream@_WU?$char_traits@_W@std@@@std@@QEAA@AEAV12@@Z
xdata	ENDS
;	COMDAT xdata
xdata	SEGMENT
$unwind$??0sentry@?$basic_ostream@_WU?$char_traits@_W@std@@@std@@QEAA@AEAV12@@Z DD 040f11H
	DD	07340fH
	DD	0700b320fH
	DD	imagerel __CxxFrameHandler4
	DD	imagerel $cppxdata$??0sentry@?$basic_ostream@_WU?$char_traits@_W@std@@@std@@QEAA@AEAV12@@Z
xdata	ENDS
;	COMDAT xdata
xdata	SEGMENT
$unwind$?_Tidy@?$basic_stringbuf@DU?$char_traits@D@std@@V?$allocator@D@2@@std@@IEAAXXZ DD 020601H
	DD	030023206H
xdata	ENDS
;	COMDAT xdata
xdata	SEGMENT
$unwind$?dtor$0@?0??str@?$basic_stringbuf@DU?$char_traits@D@std@@V?$allocator@D@2@@std@@QEGBA?AV?$basic_string@DU?$char_traits@D@std@@V?$allocator@D@2@@2@XZ@4HA DD 020601H
	DD	050023206H
xdata	ENDS
;	COMDAT xdata
xdata	SEGMENT
$ip2state$?str@?$basic_stringbuf@DU?$char_traits@D@std@@V?$allocator@D@2@@std@@QEGBA?AV?$basic_string@DU?$char_traits@D@std@@V?$allocator@D@2@@2@XZ DB 02H
	DB	0e9H, 02H
	DB	02H
xdata	ENDS
;	COMDAT xdata
xdata	SEGMENT
$stateUnwindMap$?str@?$basic_stringbuf@DU?$char_traits@D@std@@V?$allocator@D@2@@std@@QEGBA?AV?$basic_string@DU?$char_traits@D@std@@V?$allocator@D@2@@2@XZ DB 02H
	DB	0eH
	DD	imagerel ?dtor$0@?0??str@?$basic_stringbuf@DU?$char_traits@D@std@@V?$allocator@D@2@@std@@QEGBA?AV?$basic_string@DU?$char_traits@D@std@@V?$allocator@D@2@@2@XZ@4HA
xdata	ENDS
;	COMDAT xdata
xdata	SEGMENT
$cppxdata$?str@?$basic_stringbuf@DU?$char_traits@D@std@@V?$allocator@D@2@@std@@QEGBA?AV?$basic_string@DU?$char_traits@D@std@@V?$allocator@D@2@@2@XZ DB 028H
	DD	imagerel $stateUnwindMap$?str@?$basic_stringbuf@DU?$char_traits@D@std@@V?$allocator@D@2@@std@@QEGBA?AV?$basic_string@DU?$char_traits@D@std@@V?$allocator@D@2@@2@XZ
	DD	imagerel $ip2state$?str@?$basic_stringbuf@DU?$char_traits@D@std@@V?$allocator@D@2@@std@@QEGBA?AV?$basic_string@DU?$char_traits@D@std@@V?$allocator@D@2@@2@XZ
xdata	ENDS
;	COMDAT xdata
xdata	SEGMENT
$unwind$?str@?$basic_stringbuf@DU?$char_traits@D@std@@V?$allocator@D@2@@std@@QEGBA?AV?$basic_string@DU?$char_traits@D@std@@V?$allocator@D@2@@2@XZ DD 040f11H
	DD	0a340fH
	DD	0700b720fH
	DD	imagerel __CxxFrameHandler4
	DD	imagerel $cppxdata$?str@?$basic_stringbuf@DU?$char_traits@D@std@@V?$allocator@D@2@@std@@QEGBA?AV?$basic_string@DU?$char_traits@D@std@@V?$allocator@D@2@@2@XZ
xdata	ENDS
;	COMDAT xdata
xdata	SEGMENT
$unwind$??0?$basic_stringbuf@DU?$char_traits@D@std@@V?$allocator@D@2@@std@@QEAA@H@Z DD 020601H
	DD	030023206H
xdata	ENDS
;	COMDAT xdata
xdata	SEGMENT
$unwind$?_Tidy_deallocate@?$basic_string@DU?$char_traits@D@std@@V?$allocator@D@2@@std@@AEAAXXZ DD 020601H
	DD	030023206H
xdata	ENDS
;	COMDAT xdata
xdata	SEGMENT
$unwind$?deallocate@?$allocator@D@std@@QEAAXQEAD_K@Z DD 010401H
	DD	04204H
xdata	ENDS
;	COMDAT xdata
xdata	SEGMENT
$unwind$?copy@?$_Char_traits@DH@std@@SAPEADQEADQEBD_K@Z DD 020601H
	DD	030023206H
xdata	ENDS
;	COMDAT xdata
xdata	SEGMENT
$ip2state$??1_Sentry_base@?$basic_ostream@DU?$char_traits@D@std@@@std@@QEAA@XZ DB 02H
	DB	'6'
	DB	00H
xdata	ENDS
;	COMDAT xdata
xdata	SEGMENT
$cppxdata$??1_Sentry_base@?$basic_ostream@DU?$char_traits@D@std@@@std@@QEAA@XZ DB 060H
	DD	imagerel $ip2state$??1_Sentry_base@?$basic_ostream@DU?$char_traits@D@std@@@std@@QEAA@XZ
xdata	ENDS
;	COMDAT xdata
xdata	SEGMENT
$unwind$??1_Sentry_base@?$basic_ostream@DU?$char_traits@D@std@@@std@@QEAA@XZ DD 010419H
	DD	04204H
	DD	imagerel __CxxFrameHandler4
	DD	imagerel $cppxdata$??1_Sentry_base@?$basic_ostream@DU?$char_traits@D@std@@@std@@QEAA@XZ
xdata	ENDS
;	COMDAT xdata
xdata	SEGMENT
$unwind$??0_Sentry_base@?$basic_ostream@DU?$char_traits@D@std@@@std@@QEAA@AEAV12@@Z DD 020601H
	DD	030023206H
xdata	ENDS
;	COMDAT xdata
xdata	SEGMENT
$ip2state$??1_Sentry_base@?$basic_ostream@_WU?$char_traits@_W@std@@@std@@QEAA@XZ DB 02H
	DB	'6'
	DB	00H
xdata	ENDS
;	COMDAT xdata
xdata	SEGMENT
$cppxdata$??1_Sentry_base@?$basic_ostream@_WU?$char_traits@_W@std@@@std@@QEAA@XZ DB 060H
	DD	imagerel $ip2state$??1_Sentry_base@?$basic_ostream@_WU?$char_traits@_W@std@@@std@@QEAA@XZ
xdata	ENDS
;	COMDAT xdata
xdata	SEGMENT
$unwind$??1_Sentry_base@?$basic_ostream@_WU?$char_traits@_W@std@@@std@@QEAA@XZ DD 010419H
	DD	04204H
	DD	imagerel __CxxFrameHandler4
	DD	imagerel $cppxdata$??1_Sentry_base@?$basic_ostream@_WU?$char_traits@_W@std@@@std@@QEAA@XZ
xdata	ENDS
;	COMDAT xdata
xdata	SEGMENT
$unwind$??0_Sentry_base@?$basic_ostream@_WU?$char_traits@_W@std@@@std@@QEAA@AEAV12@@Z DD 020601H
	DD	030023206H
xdata	ENDS
;	COMDAT xdata
xdata	SEGMENT
$chain$1$?assign@?$basic_string@DU?$char_traits@D@std@@V?$allocator@D@2@@std@@QEAAAEAV12@QEBD_K@Z DD 021H
	DD	imagerel $LN43
	DD	imagerel $LN43+25
	DD	imagerel $unwind$?assign@?$basic_string@DU?$char_traits@D@std@@V?$allocator@D@2@@std@@QEAAAEAV12@QEBD_K@Z
xdata	ENDS
;	COMDAT xdata
xdata	SEGMENT
$chain$0$?assign@?$basic_string@DU?$char_traits@D@std@@V?$allocator@D@2@@std@@QEAAAEAV12@QEBD_K@Z DD 020521H
	DD	066405H
	DD	imagerel $LN43
	DD	imagerel $LN43+25
	DD	imagerel $unwind$?assign@?$basic_string@DU?$char_traits@D@std@@V?$allocator@D@2@@std@@QEAAAEAV12@QEBD_K@Z
xdata	ENDS
;	COMDAT xdata
xdata	SEGMENT
$unwind$?assign@?$basic_string@DU?$char_traits@D@std@@V?$allocator@D@2@@std@@QEAAAEAV12@QEBD_K@Z DD 040a01H
	DD	07340aH
	DD	07006320aH
xdata	ENDS
;	COMDAT xdata
xdata	SEGMENT
$unwind$??R<lambda_1>@?1??assign@?$basic_string@DU?$char_traits@D@std@@V?$allocator@D@2@@std@@QEAAAEAV23@QEBD_K@Z@QEBA@QEAD10@Z DD 040a01H
	DD	06340aH
	DD	07006320aH
xdata	ENDS
;	COMDAT xdata
xdata	SEGMENT
$unwind$?_Deallocate_for_capacity@?$basic_string@DU?$char_traits@D@std@@V?$allocator@D@2@@std@@CAXAEAV?$allocator@D@2@QEAD_K@Z DD 010401H
	DD	04204H
xdata	ENDS
;	COMDAT xdata
xdata	SEGMENT
$unwind$?move@?$_Char_traits@DH@std@@SAPEADQEADQEBD_K@Z DD 020601H
	DD	030023206H
xdata	ENDS
;	COMDAT xdata
xdata	SEGMENT
$unwind$?catch$17@?0???$?6U?$char_traits@D@std@@@std@@YAAEAV?$basic_ostream@DU?$char_traits@D@std@@@0@AEAV10@PEBD@Z@4HA DD 020a01H
	DD	05006320aH
xdata	ENDS
;	COMDAT xdata
xdata	SEGMENT
$ip2state$??$?6U?$char_traits@D@std@@@std@@YAAEAV?$basic_ostream@DU?$char_traits@D@std@@@0@AEAV10@PEBD@Z DB 0cH
	DB	0d6H
	DB	00H
	DB	'\'
	DB	02H
	DB	0baH
	DB	06H
	DB	0deH
	DB	04H
	DB	'L'
	DB	00H
	DB	'R'
	DB	0aH
xdata	ENDS
;	COMDAT xdata
xdata	SEGMENT
$handlerMap$??$?6U?$char_traits@D@std@@@std@@YAAEAV?$basic_ostream@DU?$char_traits@D@std@@@0@AEAV10@PEBD@Z DB 02H
	DB	011H
	DB	080H
	DD	imagerel ?catch$17@?0???$?6U?$char_traits@D@std@@@std@@YAAEAV?$basic_ostream@DU?$char_traits@D@std@@@0@AEAV10@PEBD@Z@4HA
	DB	09dH, 05H
xdata	ENDS
;	COMDAT xdata
xdata	SEGMENT
$tryMap$??$?6U?$char_traits@D@std@@@std@@YAAEAV?$basic_ostream@DU?$char_traits@D@std@@@0@AEAV10@PEBD@Z DB 02H
	DB	04H
	DB	04H
	DB	06H
	DD	imagerel $handlerMap$??$?6U?$char_traits@D@std@@@std@@YAAEAV?$basic_ostream@DU?$char_traits@D@std@@@0@AEAV10@PEBD@Z
xdata	ENDS
;	COMDAT xdata
xdata	SEGMENT
$stateUnwindMap$??$?6U?$char_traits@D@std@@@std@@YAAEAV?$basic_ostream@DU?$char_traits@D@std@@@0@AEAV10@PEBD@Z DB 0aH
	DB	0aH
	DD	imagerel ??1_Sentry_base@?$basic_ostream@DU?$char_traits@D@std@@@std@@QEAA@XZ
	DB	040H
	DB	03aH
	DD	imagerel ??1sentry@?$basic_ostream@DU?$char_traits@D@std@@@std@@QEAA@XZ
	DB	040H
	DB	030H
	DB	038H
	DB	07eH
	DD	imagerel __imp___std_terminate
xdata	ENDS
;	COMDAT xdata
xdata	SEGMENT
$cppxdata$??$?6U?$char_traits@D@std@@@std@@YAAEAV?$basic_ostream@DU?$char_traits@D@std@@@0@AEAV10@PEBD@Z DB 038H
	DD	imagerel $stateUnwindMap$??$?6U?$char_traits@D@std@@@std@@YAAEAV?$basic_ostream@DU?$char_traits@D@std@@@0@AEAV10@PEBD@Z
	DD	imagerel $tryMap$??$?6U?$char_traits@D@std@@@std@@YAAEAV?$basic_ostream@DU?$char_traits@D@std@@@0@AEAV10@PEBD@Z
	DD	imagerel $ip2state$??$?6U?$char_traits@D@std@@@std@@YAAEAV?$basic_ostream@DU?$char_traits@D@std@@@0@AEAV10@PEBD@Z
xdata	ENDS
;	COMDAT xdata
xdata	SEGMENT
$unwind$??$?6U?$char_traits@D@std@@@std@@YAAEAV?$basic_ostream@DU?$char_traits@D@std@@@0@AEAV10@PEBD@Z DD 081619H
	DD	0d3416H
	DD	0f0125216H
	DD	0c00ee010H
	DD	0600b700cH
	DD	imagerel __CxxFrameHandler4
	DD	imagerel $cppxdata$??$?6U?$char_traits@D@std@@@std@@YAAEAV?$basic_ostream@DU?$char_traits@D@std@@@0@AEAV10@PEBD@Z
xdata	ENDS
;	COMDAT xdata
xdata	SEGMENT
$unwind$??$endl@DU?$char_traits@D@std@@@std@@YAAEAV?$basic_ostream@DU?$char_traits@D@std@@@0@AEAV10@@Z DD 020601H
	DD	030023206H
xdata	ENDS
;	COMDAT xdata
xdata	SEGMENT
$unwind$??$?6DU?$char_traits@D@std@@@std@@YAAEAV?$basic_ostream@DU?$char_traits@D@std@@@0@AEAV10@AEBU?$_Smanip@_J@0@@Z DD 020601H
	DD	030023206H
xdata	ENDS
;	COMDAT xdata
xdata	SEGMENT
$unwind$?catch$17@?0???$?6_WU?$char_traits@_W@std@@@std@@YAAEAV?$basic_ostream@_WU?$char_traits@_W@std@@@0@AEAV10@PEB_W@Z@4HA DD 020a01H
	DD	05006320aH
xdata	ENDS
;	COMDAT xdata
xdata	SEGMENT
$ip2state$??$?6_WU?$char_traits@_W@std@@@std@@YAAEAV?$basic_ostream@_WU?$char_traits@_W@std@@@0@AEAV10@PEB_W@Z DB 0cH
	DB	0d8H
	DB	00H
	DB	'\'
	DB	02H
	DB	0baH
	DB	06H
	DB	0eeH
	DB	04H
	DB	'L'
	DB	00H
	DB	'R'
	DB	0aH
xdata	ENDS
;	COMDAT xdata
xdata	SEGMENT
$handlerMap$??$?6_WU?$char_traits@_W@std@@@std@@YAAEAV?$basic_ostream@_WU?$char_traits@_W@std@@@0@AEAV10@PEB_W@Z DB 02H
	DB	011H
	DB	080H
	DD	imagerel ?catch$17@?0???$?6_WU?$char_traits@_W@std@@@std@@YAAEAV?$basic_ostream@_WU?$char_traits@_W@std@@@0@AEAV10@PEB_W@Z@4HA
	DB	0c1H, 05H
xdata	ENDS
;	COMDAT xdata
xdata	SEGMENT
$tryMap$??$?6_WU?$char_traits@_W@std@@@std@@YAAEAV?$basic_ostream@_WU?$char_traits@_W@std@@@0@AEAV10@PEB_W@Z DB 02H
	DB	04H
	DB	04H
	DB	06H
	DD	imagerel $handlerMap$??$?6_WU?$char_traits@_W@std@@@std@@YAAEAV?$basic_ostream@_WU?$char_traits@_W@std@@@0@AEAV10@PEB_W@Z
xdata	ENDS
;	COMDAT xdata
xdata	SEGMENT
$stateUnwindMap$??$?6_WU?$char_traits@_W@std@@@std@@YAAEAV?$basic_ostream@_WU?$char_traits@_W@std@@@0@AEAV10@PEB_W@Z DB 0aH
	DB	0aH
	DD	imagerel ??1_Sentry_base@?$basic_ostream@_WU?$char_traits@_W@std@@@std@@QEAA@XZ
	DB	040H
	DB	03aH
	DD	imagerel ??1sentry@?$basic_ostream@_WU?$char_traits@_W@std@@@std@@QEAA@XZ
	DB	040H
	DB	030H
	DB	038H
	DB	07eH
	DD	imagerel __imp___std_terminate
xdata	ENDS
;	COMDAT xdata
xdata	SEGMENT
$cppxdata$??$?6_WU?$char_traits@_W@std@@@std@@YAAEAV?$basic_ostream@_WU?$char_traits@_W@std@@@0@AEAV10@PEB_W@Z DB 038H
	DD	imagerel $stateUnwindMap$??$?6_WU?$char_traits@_W@std@@@std@@YAAEAV?$basic_ostream@_WU?$char_traits@_W@std@@@0@AEAV10@PEB_W@Z
	DD	imagerel $tryMap$??$?6_WU?$char_traits@_W@std@@@std@@YAAEAV?$basic_ostream@_WU?$char_traits@_W@std@@@0@AEAV10@PEB_W@Z
	DD	imagerel $ip2state$??$?6_WU?$char_traits@_W@std@@@std@@YAAEAV?$basic_ostream@_WU?$char_traits@_W@std@@@0@AEAV10@PEB_W@Z
xdata	ENDS
;	COMDAT xdata
xdata	SEGMENT
$unwind$??$?6_WU?$char_traits@_W@std@@@std@@YAAEAV?$basic_ostream@_WU?$char_traits@_W@std@@@0@AEAV10@PEB_W@Z DD 0a1c19H
	DD	0f641cH
	DD	0d341cH
	DD	0f018521cH
	DD	0d014e016H
	DD	07010c012H
	DD	imagerel __CxxFrameHandler4
	DD	imagerel $cppxdata$??$?6_WU?$char_traits@_W@std@@@std@@YAAEAV?$basic_ostream@_WU?$char_traits@_W@std@@@0@AEAV10@PEB_W@Z
xdata	ENDS
;	COMDAT xdata
xdata	SEGMENT
$unwind$?catch$18@?0???$?6_WU?$char_traits@_W@std@@@std@@YAAEAV?$basic_ostream@_WU?$char_traits@_W@std@@@0@AEAV10@PEBD@Z@4HA DD 020a01H
	DD	05006320aH
xdata	ENDS
;	COMDAT xdata
xdata	SEGMENT
$ip2state$??$?6_WU?$char_traits@_W@std@@@std@@YAAEAV?$basic_ostream@_WU?$char_traits@_W@std@@@0@AEAV10@PEBD@Z DB 0eH
	DB	0ceH
	DB	00H
	DB	'\'
	DB	02H
	DB	08aH
	DB	08H
	DB	0c8H
	DB	06H
	DB	0fdH, 02H
	DB	04H
	DB	'b'
	DB	00H
	DB	'P'
	DB	0cH
xdata	ENDS
;	COMDAT xdata
xdata	SEGMENT
$handlerMap$??$?6_WU?$char_traits@_W@std@@@std@@YAAEAV?$basic_ostream@_WU?$char_traits@_W@std@@@0@AEAV10@PEBD@Z DB 02H
	DB	011H
	DB	080H
	DD	imagerel ?catch$18@?0???$?6_WU?$char_traits@_W@std@@@std@@YAAEAV?$basic_ostream@_WU?$char_traits@_W@std@@@0@AEAV10@PEBD@Z@4HA
	DB	011H, 08H
xdata	ENDS
;	COMDAT xdata
xdata	SEGMENT
$tryMap$??$?6_WU?$char_traits@_W@std@@@std@@YAAEAV?$basic_ostream@_WU?$char_traits@_W@std@@@0@AEAV10@PEBD@Z DB 02H
	DB	04H
	DB	06H
	DB	08H
	DD	imagerel $handlerMap$??$?6_WU?$char_traits@_W@std@@@std@@YAAEAV?$basic_ostream@_WU?$char_traits@_W@std@@@0@AEAV10@PEBD@Z
xdata	ENDS
;	COMDAT xdata
xdata	SEGMENT
$stateUnwindMap$??$?6_WU?$char_traits@_W@std@@@std@@YAAEAV?$basic_ostream@_WU?$char_traits@_W@std@@@0@AEAV10@PEBD@Z DB 0cH
	DB	0aH
	DD	imagerel ??1_Sentry_base@?$basic_ostream@_WU?$char_traits@_W@std@@@std@@QEAA@XZ
	DB	040H
	DB	03aH
	DD	imagerel ??1sentry@?$basic_ostream@_WU?$char_traits@_W@std@@@std@@QEAA@XZ
	DB	040H
	DB	030H
	DB	0aH
	DD	imagerel ??1locale@std@@QEAA@XZ
	DB	060H
	DB	068H
	DB	0aeH
	DD	imagerel __imp___std_terminate
xdata	ENDS
;	COMDAT xdata
xdata	SEGMENT
$cppxdata$??$?6_WU?$char_traits@_W@std@@@std@@YAAEAV?$basic_ostream@_WU?$char_traits@_W@std@@@0@AEAV10@PEBD@Z DB 038H
	DD	imagerel $stateUnwindMap$??$?6_WU?$char_traits@_W@std@@@std@@YAAEAV?$basic_ostream@_WU?$char_traits@_W@std@@@0@AEAV10@PEBD@Z
	DD	imagerel $tryMap$??$?6_WU?$char_traits@_W@std@@@std@@YAAEAV?$basic_ostream@_WU?$char_traits@_W@std@@@0@AEAV10@PEBD@Z
	DD	imagerel $ip2state$??$?6_WU?$char_traits@_W@std@@@std@@YAAEAV?$basic_ostream@_WU?$char_traits@_W@std@@@0@AEAV10@PEBD@Z
xdata	ENDS
;	COMDAT xdata
xdata	SEGMENT
$unwind$??$?6_WU?$char_traits@_W@std@@@std@@YAAEAV?$basic_ostream@_WU?$char_traits@_W@std@@@0@AEAV10@PEBD@Z DD 081919H
	DD	0f0157219H
	DD	0d011e013H
	DD	0700dc00fH
	DD	0300b600cH
	DD	imagerel __CxxFrameHandler4
	DD	imagerel $cppxdata$??$?6_WU?$char_traits@_W@std@@@std@@YAAEAV?$basic_ostream@_WU?$char_traits@_W@std@@@0@AEAV10@PEBD@Z
xdata	ENDS
;	COMDAT xdata
xdata	SEGMENT
$unwind$??$endl@_WU?$char_traits@_W@std@@@std@@YAAEAV?$basic_ostream@_WU?$char_traits@_W@std@@@0@AEAV10@@Z DD 020601H
	DD	030023206H
xdata	ENDS
;	COMDAT xdata
xdata	SEGMENT
$unwind$??$sleep_for@_JU?$ratio@$00$00@std@@@this_thread@std@@YAXAEBV?$duration@_JU?$ratio@$00$00@std@@@chrono@1@@Z DD 0c2e19H
	DD	04681fH
	DD	0f741aH
	DD	0e641aH
	DD	0d541aH
	DD	0c341aH
	DD	0e016921aH
	DD	imagerel __GSHandlerCheck
	DD	030H
xdata	ENDS
;	COMDAT xdata
xdata	SEGMENT
$unwind$??$_To_absolute_time@_JU?$ratio@$00$00@std@@@std@@YA?A_PAEBV?$duration@_JU?$ratio@$00$00@std@@@chrono@0@@Z DD 060f01H
	DD	07640fH
	DD	06340fH
	DD	0700b320fH
xdata	ENDS
;	COMDAT xdata
xdata	SEGMENT
$unwind$??$_Allocate_at_least_helper@V?$allocator@D@std@@@std@@YAPEADAEAV?$allocator@D@0@AEA_K@Z DD 010401H
	DD	04204H
xdata	ENDS
;	COMDAT xdata
xdata	SEGMENT
$ip2state$??$use_facet@V?$ctype@_W@std@@@std@@YAAEBV?$ctype@_W@0@AEBVlocale@0@@Z DB 08H
	DB	08eH
	DB	02H
	DB	0e6H
	DB	04H
	DB	':'
	DB	00H
	DB	'`'
	DB	02H
xdata	ENDS
;	COMDAT xdata
xdata	SEGMENT
$stateUnwindMap$??$use_facet@V?$ctype@_W@std@@@std@@YAAEBV?$ctype@_W@0@AEBVlocale@0@@Z DB 04H
	DB	0aH
	DD	imagerel __imp_??1_Lockit@std@@QEAA@XZ
	DB	050H
	DB	032H
	DD	imagerel ??1?$unique_ptr@V_Facet_base@std@@U?$default_delete@V_Facet_base@std@@@2@@std@@QEAA@XZ
	DB	060H
xdata	ENDS
;	COMDAT xdata
xdata	SEGMENT
$cppxdata$??$use_facet@V?$ctype@_W@std@@@std@@YAAEBV?$ctype@_W@0@AEBVlocale@0@@Z DB 028H
	DD	imagerel $stateUnwindMap$??$use_facet@V?$ctype@_W@std@@@std@@YAAEBV?$ctype@_W@0@AEBVlocale@0@@Z
	DD	imagerel $ip2state$??$use_facet@V?$ctype@_W@std@@@std@@YAAEBV?$ctype@_W@0@AEBVlocale@0@@Z
xdata	ENDS
;	COMDAT xdata
xdata	SEGMENT
$unwind$??$use_facet@V?$ctype@_W@std@@@std@@YAAEBV?$ctype@_W@0@AEBVlocale@0@@Z DD 082319H
	DD	0d6414H
	DD	0c5414H
	DD	0b3414H
	DD	070107214H
	DD	imagerel __GSHandlerCheck_EH4
	DD	imagerel $cppxdata$??$use_facet@V?$ctype@_W@std@@@std@@YAAEBV?$ctype@_W@0@AEBVlocale@0@@Z
	DD	03aH
xdata	ENDS
;	COMDAT xdata
xdata	SEGMENT
$chain$2$??$_Construct@$00PEBD@?$basic_string@DU?$char_traits@D@std@@V?$allocator@D@2@@std@@AEAAXQEBD_K@Z DD 020021H
	DD	046400H
	DD	imagerel $LN92
	DD	imagerel $LN92+79
	DD	imagerel $unwind$??$_Construct@$00PEBD@?$basic_string@DU?$char_traits@D@std@@V?$allocator@D@2@@std@@AEAAXQEBD_K@Z
xdata	ENDS
;	COMDAT xdata
xdata	SEGMENT
$chain$1$??$_Construct@$00PEBD@?$basic_string@DU?$char_traits@D@std@@V?$allocator@D@2@@std@@AEAAXQEBD_K@Z DD 021H
	DD	imagerel $LN92
	DD	imagerel $LN92+79
	DD	imagerel $unwind$??$_Construct@$00PEBD@?$basic_string@DU?$char_traits@D@std@@V?$allocator@D@2@@std@@AEAAXQEBD_K@Z
xdata	ENDS
;	COMDAT xdata
xdata	SEGMENT
$chain$0$??$_Construct@$00PEBD@?$basic_string@DU?$char_traits@D@std@@V?$allocator@D@2@@std@@AEAAXQEBD_K@Z DD 020521H
	DD	046405H
	DD	imagerel $LN92
	DD	imagerel $LN92+79
	DD	imagerel $unwind$??$_Construct@$00PEBD@?$basic_string@DU?$char_traits@D@std@@V?$allocator@D@2@@std@@AEAAXQEBD_K@Z
xdata	ENDS
;	COMDAT xdata
xdata	SEGMENT
$unwind$??$_Construct@$00PEBD@?$basic_string@DU?$char_traits@D@std@@V?$allocator@D@2@@std@@AEAAXQEBD_K@Z DD 050a01H
	DD	0e006420aH
	DD	050037004H
	DD	03002H
xdata	ENDS
;	COMDAT xdata
xdata	SEGMENT
$unwind$??$_Deallocate@$0BA@$0A@@std@@YAXPEAX_K@Z DD 010401H
	DD	04204H
xdata	ENDS
;	COMDAT xdata
xdata	SEGMENT
$chain$5$??$_Reallocate_for@V<lambda_1>@?1??assign@?$basic_string@DU?$char_traits@D@std@@V?$allocator@D@2@@std@@QEAAAEAV34@QEBD_K@Z@PEBD@?$basic_string@DU?$char_traits@D@std@@V?$allocator@D@2@@std@@AEAAAEAV01@_KV<lambda_1>@?1??assign@01@QEAAAEAV01@QEBD0@Z@PEBD@Z DD 040021H
	DD	047400H
	DD	0c5400H
	DD	imagerel $LN110
	DD	imagerel $LN110+39
	DD	imagerel $unwind$??$_Reallocate_for@V<lambda_1>@?1??assign@?$basic_string@DU?$char_traits@D@std@@V?$allocator@D@2@@std@@QEAAAEAV34@QEBD_K@Z@PEBD@?$basic_string@DU?$char_traits@D@std@@V?$allocator@D@2@@std@@AEAAAEAV01@_KV<lambda_1>@?1??assign@01@QEAAAEAV01@QEBD0@Z@PEBD@Z
xdata	ENDS
;	COMDAT xdata
xdata	SEGMENT
$chain$4$??$_Reallocate_for@V<lambda_1>@?1??assign@?$basic_string@DU?$char_traits@D@std@@V?$allocator@D@2@@std@@QEAAAEAV34@QEBD_K@Z@PEBD@?$basic_string@DU?$char_traits@D@std@@V?$allocator@D@2@@std@@AEAAAEAV01@_KV<lambda_1>@?1??assign@01@QEAAAEAV01@QEBD0@Z@PEBD@Z DD 021H
	DD	imagerel $LN110
	DD	imagerel $LN110+39
	DD	imagerel $unwind$??$_Reallocate_for@V<lambda_1>@?1??assign@?$basic_string@DU?$char_traits@D@std@@V?$allocator@D@2@@std@@QEAAAEAV34@QEBD_K@Z@PEBD@?$basic_string@DU?$char_traits@D@std@@V?$allocator@D@2@@std@@AEAAAEAV01@_KV<lambda_1>@?1??assign@01@QEAAAEAV01@QEBD0@Z@PEBD@Z
xdata	ENDS
;	COMDAT xdata
xdata	SEGMENT
$chain$3$??$_Reallocate_for@V<lambda_1>@?1??assign@?$basic_string@DU?$char_traits@D@std@@V?$allocator@D@2@@std@@QEAAAEAV34@QEBD_K@Z@PEBD@?$basic_string@DU?$char_traits@D@std@@V?$allocator@D@2@@std@@AEAAAEAV01@_KV<lambda_1>@?1??assign@01@QEAAAEAV01@QEBD0@Z@PEBD@Z DD 040021H
	DD	047400H
	DD	0c5400H
	DD	imagerel $LN110
	DD	imagerel $LN110+39
	DD	imagerel $unwind$??$_Reallocate_for@V<lambda_1>@?1??assign@?$basic_string@DU?$char_traits@D@std@@V?$allocator@D@2@@std@@QEAAAEAV34@QEBD_K@Z@PEBD@?$basic_string@DU?$char_traits@D@std@@V?$allocator@D@2@@std@@AEAAAEAV01@_KV<lambda_1>@?1??assign@01@QEAAAEAV01@QEBD0@Z@PEBD@Z
xdata	ENDS
;	COMDAT xdata
xdata	SEGMENT
$chain$1$??$_Reallocate_for@V<lambda_1>@?1??assign@?$basic_string@DU?$char_traits@D@std@@V?$allocator@D@2@@std@@QEAAAEAV34@QEBD_K@Z@PEBD@?$basic_string@DU?$char_traits@D@std@@V?$allocator@D@2@@std@@AEAAAEAV01@_KV<lambda_1>@?1??assign@01@QEAAAEAV01@QEBD0@Z@PEBD@Z DD 041221H
	DD	047412H
	DD	0c5405H
	DD	imagerel $LN110
	DD	imagerel $LN110+39
	DD	imagerel $unwind$??$_Reallocate_for@V<lambda_1>@?1??assign@?$basic_string@DU?$char_traits@D@std@@V?$allocator@D@2@@std@@QEAAAEAV34@QEBD_K@Z@PEBD@?$basic_string@DU?$char_traits@D@std@@V?$allocator@D@2@@std@@AEAAAEAV01@_KV<lambda_1>@?1??assign@01@QEAAAEAV01@QEBD0@Z@PEBD@Z
xdata	ENDS
;	COMDAT xdata
xdata	SEGMENT
$unwind$??$_Reallocate_for@V<lambda_1>@?1??assign@?$basic_string@DU?$char_traits@D@std@@V?$allocator@D@2@@std@@QEAAAEAV34@QEBD_K@Z@PEBD@?$basic_string@DU?$char_traits@D@std@@V?$allocator@D@2@@std@@AEAAAEAV01@_KV<lambda_1>@?1??assign@01@QEAAAEAV01@QEBD0@Z@PEBD@Z DD 050b01H
	DD	0f007420bH
	DD	06003e005H
	DD	03002H
xdata	ENDS
;	COMDAT xdata
xdata	SEGMENT
$unwind$?allocate@?$allocator@D@std@@QEAAPEAD_K@Z DD 010401H
	DD	04204H
xdata	ENDS
;	COMDAT xdata
xdata	SEGMENT
$unwind$?catch$17@?0???$_Insert_string@DU?$char_traits@D@std@@_K@std@@YAAEAV?$basic_ostream@DU?$char_traits@D@std@@@0@AEAV10@QEBD_K@Z@4HA DD 020a01H
	DD	05006320aH
xdata	ENDS
;	COMDAT xdata
xdata	SEGMENT
$ip2state$??$_Insert_string@DU?$char_traits@D@std@@_K@std@@YAAEAV?$basic_ostream@DU?$char_traits@D@std@@@0@AEAV10@QEBD_K@Z DB 0cH
	DB	0aeH
	DB	00H
	DB	'\'
	DB	02H
	DB	0aeH
	DB	06H
	DB	0eaH
	DB	04H
	DB	'L'
	DB	00H
	DB	'P'
	DB	0aH
xdata	ENDS
;	COMDAT xdata
xdata	SEGMENT
$handlerMap$??$_Insert_string@DU?$char_traits@D@std@@_K@std@@YAAEAV?$basic_ostream@DU?$char_traits@D@std@@@0@AEAV10@QEBD_K@Z DB 02H
	DB	011H
	DB	080H
	DD	imagerel ?catch$17@?0???$_Insert_string@DU?$char_traits@D@std@@_K@std@@YAAEAV?$basic_ostream@DU?$char_traits@D@std@@@0@AEAV10@QEBD_K@Z@4HA
	DB	'M', 05H
xdata	ENDS
;	COMDAT xdata
xdata	SEGMENT
$tryMap$??$_Insert_string@DU?$char_traits@D@std@@_K@std@@YAAEAV?$basic_ostream@DU?$char_traits@D@std@@@0@AEAV10@QEBD_K@Z DB 02H
	DB	04H
	DB	04H
	DB	06H
	DD	imagerel $handlerMap$??$_Insert_string@DU?$char_traits@D@std@@_K@std@@YAAEAV?$basic_ostream@DU?$char_traits@D@std@@@0@AEAV10@QEBD_K@Z
xdata	ENDS
;	COMDAT xdata
xdata	SEGMENT
$stateUnwindMap$??$_Insert_string@DU?$char_traits@D@std@@_K@std@@YAAEAV?$basic_ostream@DU?$char_traits@D@std@@@0@AEAV10@QEBD_K@Z DB 0aH
	DB	0aH
	DD	imagerel ??1_Sentry_base@?$basic_ostream@DU?$char_traits@D@std@@@std@@QEAA@XZ
	DB	040H
	DB	03aH
	DD	imagerel ??1sentry@?$basic_ostream@DU?$char_traits@D@std@@@std@@QEAA@XZ
	DB	040H
	DB	030H
	DB	038H
	DB	07eH
	DD	imagerel __imp___std_terminate
xdata	ENDS
;	COMDAT xdata
xdata	SEGMENT
$cppxdata$??$_Insert_string@DU?$char_traits@D@std@@_K@std@@YAAEAV?$basic_ostream@DU?$char_traits@D@std@@@0@AEAV10@QEBD_K@Z DB 038H
	DD	imagerel $stateUnwindMap$??$_Insert_string@DU?$char_traits@D@std@@_K@std@@YAAEAV?$basic_ostream@DU?$char_traits@D@std@@@0@AEAV10@QEBD_K@Z
	DD	imagerel $tryMap$??$_Insert_string@DU?$char_traits@D@std@@_K@std@@YAAEAV?$basic_ostream@DU?$char_traits@D@std@@@0@AEAV10@QEBD_K@Z
	DD	imagerel $ip2state$??$_Insert_string@DU?$char_traits@D@std@@_K@std@@YAAEAV?$basic_ostream@DU?$char_traits@D@std@@@0@AEAV10@QEBD_K@Z
xdata	ENDS
;	COMDAT xdata
xdata	SEGMENT
$unwind$??$_Insert_string@DU?$char_traits@D@std@@_K@std@@YAAEAV?$basic_ostream@DU?$char_traits@D@std@@@0@AEAV10@QEBD_K@Z DD 081619H
	DD	0d3416H
	DD	0f0125216H
	DD	0c00ee010H
	DD	0600b700cH
	DD	imagerel __CxxFrameHandler4
	DD	imagerel $cppxdata$??$_Insert_string@DU?$char_traits@D@std@@_K@std@@YAAEAV?$basic_ostream@DU?$char_traits@D@std@@@0@AEAV10@QEBD_K@Z
xdata	ENDS
;	COMDAT xdata
xdata	SEGMENT
$unwind$??$sleep_until@Usteady_clock@chrono@std@@V?$duration@_JU?$ratio@$00$0DLJKMKAA@@std@@@23@@this_thread@std@@YAXAEBV?$time_point@Usteady_clock@chrono@std@@V?$duration@_JU?$ratio@$00$0DLJKMKAA@@std@@@23@@chrono@1@@Z DD 0c2c19H
	DD	04681dH
	DD	0106418H
	DD	0f5418H
	DD	0e3418H
	DD	0f0149218H
	DD	07010e012H
	DD	imagerel __GSHandlerCheck
	DD	030H
xdata	ENDS
;	COMDAT xdata
xdata	SEGMENT
$unwind$??$_Allocate_for_capacity@$0A@@?$basic_string@DU?$char_traits@D@std@@V?$allocator@D@2@@std@@CAPEADAEAV?$allocator@D@1@AEA_K@Z DD 020601H
	DD	030023206H
xdata	ENDS
;	COMDAT xdata
xdata	SEGMENT
$unwind$??$_Allocate@$0BA@U_Default_allocate_traits@std@@$0A@@std@@YAPEAX_K@Z DD 010401H
	DD	04204H
xdata	ENDS
;	COMDAT xdata
xdata	SEGMENT
$unwind$??$_To_timespec64_sys_10_day_clamped@_JU?$ratio@$00$0DLJKMKAA@@std@@@std@@YA_NAEAU_timespec64@@AEBV?$duration@_JU?$ratio@$00$0DLJKMKAA@@std@@@chrono@0@@Z DD 040a01H
	DD	06340aH
	DD	07006320aH
xdata	ENDS
;	COMDAT xdata
xdata	SEGMENT
$unwind$??$_Allocate_manually_vector_aligned@U_Default_allocate_traits@std@@@std@@YAPEAX_K@Z DD 010401H
	DD	04204H
xdata	ENDS
; Function compile flags: /Ogtpy
;	COMDAT ??2@YAPEAX_KPEAX@Z
_TEXT	SEGMENT
_Size$dead$ = 8
_Where$ = 16
??2@YAPEAX_KPEAX@Z PROC					; operator new, COMDAT
; File C:\Program Files\Microsoft Visual Studio\2022\Community\VC\Tools\MSVC\14.38.33130\include\vcruntime_new.h
; Line 170
	mov	rax, rdx
; Line 171
	ret	0
??2@YAPEAX_KPEAX@Z ENDP					; operator new
_TEXT	ENDS
; Function compile flags: /Ogtpy
;	COMDAT ?is_constant_evaluated@std@@YA_NXZ
_TEXT	SEGMENT
?is_constant_evaluated@std@@YA_NXZ PROC			; std::is_constant_evaluated, COMDAT
; File C:\Program Files\Microsoft Visual Studio\2022\Community\VC\Tools\MSVC\14.38.33130\include\xtr1common
; Line 183
	xor	al, al
; Line 184
	ret	0
?is_constant_evaluated@std@@YA_NXZ ENDP			; std::is_constant_evaluated
_TEXT	ENDS
; Function compile flags: /Ogtpy
;	COMDAT ??Mstd@@YA_NUpartial_ordering@0@U_Literal_zero@0@@Z
_TEXT	SEGMENT
_Val$ = 8
__formal$dead$ = 16
??Mstd@@YA_NUpartial_ordering@0@U_Literal_zero@0@@Z PROC ; std::operator<, COMDAT
; File C:\Program Files\Microsoft Visual Studio\2022\Community\VC\Tools\MSVC\14.38.33130\include\compare
; Line 60
	cmp	cl, -1
	sete	al
; Line 61
	ret	0
??Mstd@@YA_NUpartial_ordering@0@U_Literal_zero@0@@Z ENDP ; std::operator<
_TEXT	ENDS
; Function compile flags: /Ogtpy
;	COMDAT ??Mstd@@YA_NUstrong_ordering@0@U_Literal_zero@0@@Z
_TEXT	SEGMENT
_Val$ = 8
__formal$dead$ = 16
??Mstd@@YA_NUstrong_ordering@0@U_Literal_zero@0@@Z PROC	; std::operator<, COMDAT
; File C:\Program Files\Microsoft Visual Studio\2022\Community\VC\Tools\MSVC\14.38.33130\include\compare
; Line 196
	shr	cl, 7
	movzx	eax, cl
; Line 197
	ret	0
??Mstd@@YA_NUstrong_ordering@0@U_Literal_zero@0@@Z ENDP	; std::operator<
_TEXT	ENDS
; Function compile flags: /Ogtpy
;	COMDAT ??Ostd@@YA_NUstrong_ordering@0@U_Literal_zero@0@@Z
_TEXT	SEGMENT
_Val$ = 8
__formal$dead$ = 16
??Ostd@@YA_NUstrong_ordering@0@U_Literal_zero@0@@Z PROC	; std::operator>, COMDAT
; File C:\Program Files\Microsoft Visual Studio\2022\Community\VC\Tools\MSVC\14.38.33130\include\compare
; Line 200
	test	cl, cl
	setg	al
; Line 201
	ret	0
??Ostd@@YA_NUstrong_ordering@0@U_Literal_zero@0@@Z ENDP	; std::operator>
_TEXT	ENDS
; Function compile flags: /Ogtpy
;	COMDAT ??Nstd@@YA_NUstrong_ordering@0@U_Literal_zero@0@@Z
_TEXT	SEGMENT
_Val$ = 8
__formal$dead$ = 16
??Nstd@@YA_NUstrong_ordering@0@U_Literal_zero@0@@Z PROC	; std::operator<=, COMDAT
; File C:\Program Files\Microsoft Visual Studio\2022\Community\VC\Tools\MSVC\14.38.33130\include\compare
; Line 204
	test	cl, cl
	setle	al
; Line 205
	ret	0
??Nstd@@YA_NUstrong_ordering@0@U_Literal_zero@0@@Z ENDP	; std::operator<=
_TEXT	ENDS
; Function compile flags: /Ogtpy
;	COMDAT __local_stdio_printf_options
_TEXT	SEGMENT
__local_stdio_printf_options PROC			; COMDAT
; File C:\Program Files (x86)\Windows Kits\10\Include\10.0.22621.0\ucrt\corecrt_stdio_config.h
; Line 92
	lea	rax, OFFSET FLAT:?_OptionsStorage@?1??__local_stdio_printf_options@@9@4_KA ; `__local_stdio_printf_options'::`2'::_OptionsStorage
; Line 93
	ret	0
__local_stdio_printf_options ENDP
_TEXT	ENDS
; Function compile flags: /Ogtpy
;	COMDAT _vfwprintf_l
_TEXT	SEGMENT
_Stream$ = 64
_Format$ = 72
_Locale$dead$ = 80
_ArgList$ = 88
_vfwprintf_l PROC					; COMDAT
; File C:\Program Files (x86)\Windows Kits\10\Include\10.0.22621.0\ucrt\corecrt_wstdio.h
; Line 308
$LN4:
	mov	QWORD PTR [rsp+8], rbx
	mov	QWORD PTR [rsp+16], rsi
	push	rdi
	sub	rsp, 48					; 00000030H
	mov	rbx, r9
	mov	rdi, rdx
	mov	rsi, rcx
; Line 309
	call	__local_stdio_printf_options
	xor	r9d, r9d
	mov	QWORD PTR [rsp+32], rbx
	mov	r8, rdi
	mov	rdx, rsi
	mov	rcx, QWORD PTR [rax]
	call	QWORD PTR __imp___stdio_common_vfwprintf
; Line 310
	mov	rbx, QWORD PTR [rsp+64]
	mov	rsi, QWORD PTR [rsp+72]
	add	rsp, 48					; 00000030H
	pop	rdi
	ret	0
_vfwprintf_l ENDP
_TEXT	ENDS
; Function compile flags: /Ogtpy
;	COMDAT wprintf
_TEXT	SEGMENT
_Format$ = 80
wprintf	PROC						; COMDAT
; File C:\Program Files (x86)\Windows Kits\10\Include\10.0.22621.0\ucrt\corecrt_wstdio.h
; Line 614
$LN6:
	mov	QWORD PTR [rsp+8], rcx
	mov	QWORD PTR [rsp+16], rdx
	mov	QWORD PTR [rsp+24], r8
	mov	QWORD PTR [rsp+32], r9
	push	rbx
	push	rdi
	sub	rsp, 56					; 00000038H
; Line 618
	mov	ecx, 1
	lea	rdi, QWORD PTR _Format$[rsp+8]
	call	QWORD PTR __imp___acrt_iob_func
	mov	rbx, rax
; Line 309
	call	__local_stdio_printf_options
	mov	r8, QWORD PTR _Format$[rsp]
	xor	r9d, r9d
	mov	rdx, rbx
	mov	QWORD PTR [rsp+32], rdi
	mov	rcx, QWORD PTR [rax]
	call	QWORD PTR __imp___stdio_common_vfwprintf
; Line 621
	add	rsp, 56					; 00000038H
	pop	rdi
	pop	rbx
	ret	0
wprintf	ENDP
_TEXT	ENDS
; Function compile flags: /Ogtpy
;	COMDAT ??0exception@std@@QEAA@QEBDH@Z
_TEXT	SEGMENT
this$ = 8
_Message$ = 16
__formal$ = 24
??0exception@std@@QEAA@QEBDH@Z PROC			; std::exception::exception, COMDAT
; File C:\Program Files\Microsoft Visual Studio\2022\Community\VC\Tools\MSVC\14.38.33130\include\vcruntime_exception.h
; Line 66
	lea	rax, OFFSET FLAT:??_7exception@std@@6B@
	mov	QWORD PTR [rcx], rax
; Line 68
	mov	rax, rcx
	mov	QWORD PTR [rcx+16], 0
	mov	QWORD PTR [rcx+8], rdx
	ret	0
??0exception@std@@QEAA@QEBDH@Z ENDP			; std::exception::exception
_TEXT	ENDS
; Function compile flags: /Ogtpy
;	COMDAT ??0exception@std@@QEAA@AEBV01@@Z
_TEXT	SEGMENT
this$ = 48
_Other$ = 56
??0exception@std@@QEAA@AEBV01@@Z PROC			; std::exception::exception, COMDAT
; File C:\Program Files\Microsoft Visual Studio\2022\Community\VC\Tools\MSVC\14.38.33130\include\vcruntime_exception.h
; Line 72
$LN5:
	push	rbx
	sub	rsp, 32					; 00000020H
	mov	rbx, rcx
	mov	rax, rdx
	lea	rcx, OFFSET FLAT:??_7exception@std@@6B@
	xorps	xmm0, xmm0
	lea	rdx, QWORD PTR [rbx+8]
	mov	QWORD PTR [rbx], rcx
; Line 73
	lea	rcx, QWORD PTR [rax+8]
	movups	XMMWORD PTR [rdx], xmm0
	call	QWORD PTR __imp___std_exception_copy
; Line 74
	mov	rax, rbx
	add	rsp, 32					; 00000020H
	pop	rbx
	ret	0
??0exception@std@@QEAA@AEBV01@@Z ENDP			; std::exception::exception
_TEXT	ENDS
; Function compile flags: /Ogtpy
;	COMDAT ??1exception@std@@UEAA@XZ
_TEXT	SEGMENT
this$ = 8
??1exception@std@@UEAA@XZ PROC				; std::exception::~exception, COMDAT
; File C:\Program Files\Microsoft Visual Studio\2022\Community\VC\Tools\MSVC\14.38.33130\include\vcruntime_exception.h
; Line 89
	lea	rax, OFFSET FLAT:??_7exception@std@@6B@
	mov	QWORD PTR [rcx], rax
; Line 90
	add	rcx, 8
	rex_jmp	QWORD PTR __imp___std_exception_destroy
??1exception@std@@UEAA@XZ ENDP				; std::exception::~exception
_TEXT	ENDS
; Function compile flags: /Ogtpy
;	COMDAT ?what@exception@std@@UEBAPEBDXZ
_TEXT	SEGMENT
this$ = 8
?what@exception@std@@UEBAPEBDXZ PROC			; std::exception::what, COMDAT
; File C:\Program Files\Microsoft Visual Studio\2022\Community\VC\Tools\MSVC\14.38.33130\include\vcruntime_exception.h
; Line 95
	mov	rdx, QWORD PTR [rcx+8]
	lea	rax, OFFSET FLAT:??_C@_0BC@EOODALEL@Unknown?5exception@
	test	rdx, rdx
	cmovne	rax, rdx
; Line 96
	ret	0
?what@exception@std@@UEBAPEBDXZ ENDP			; std::exception::what
_TEXT	ENDS
; Function compile flags: /Ogtpy
;	COMDAT ??_Gexception@std@@UEAAPEAXI@Z
_TEXT	SEGMENT
this$ = 48
__flags$ = 56
??_Gexception@std@@UEAAPEAXI@Z PROC			; std::exception::`scalar deleting destructor', COMDAT
$LN10:
	mov	QWORD PTR [rsp+8], rbx
	push	rdi
	sub	rsp, 32					; 00000020H
; File C:\Program Files\Microsoft Visual Studio\2022\Community\VC\Tools\MSVC\14.38.33130\include\vcruntime_exception.h
; Line 89
	lea	rax, OFFSET FLAT:??_7exception@std@@6B@
	mov	rdi, rcx
	mov	QWORD PTR [rcx], rax
	mov	ebx, edx
; Line 90
	add	rcx, 8
	call	QWORD PTR __imp___std_exception_destroy
	test	bl, 1
	je	SHORT $LN6@scalar
	mov	edx, 24
	mov	rcx, rdi
	call	??3@YAXPEAX_K@Z				; operator delete
$LN6@scalar:
	mov	rbx, QWORD PTR [rsp+48]
	mov	rax, rdi
	add	rsp, 32					; 00000020H
	pop	rdi
	ret	0
??_Gexception@std@@UEAAPEAXI@Z ENDP			; std::exception::`scalar deleting destructor'
_TEXT	ENDS
; Function compile flags: /Ogtpy
;	COMDAT ??0bad_alloc@std@@AEAA@QEBD@Z
_TEXT	SEGMENT
this$ = 8
_Message$ = 16
??0bad_alloc@std@@AEAA@QEBD@Z PROC			; std::bad_alloc::bad_alloc, COMDAT
; File C:\Program Files\Microsoft Visual Studio\2022\Community\VC\Tools\MSVC\14.38.33130\include\vcruntime_exception.h
; Line 130
	lea	rax, OFFSET FLAT:??_7bad_alloc@std@@6B@
; Line 65
	mov	QWORD PTR [rcx+16], 0
; Line 130
	mov	QWORD PTR [rcx], rax
; Line 131
	mov	rax, rcx
; Line 67
	mov	QWORD PTR [rcx+8], rdx
; Line 131
	ret	0
??0bad_alloc@std@@AEAA@QEBD@Z ENDP			; std::bad_alloc::bad_alloc
_TEXT	ENDS
; Function compile flags: /Ogtpy
;	COMDAT ??_Gbad_alloc@std@@UEAAPEAXI@Z
_TEXT	SEGMENT
this$ = 48
__flags$ = 56
??_Gbad_alloc@std@@UEAAPEAXI@Z PROC			; std::bad_alloc::`scalar deleting destructor', COMDAT
$LN13:
	mov	QWORD PTR [rsp+8], rbx
	push	rdi
	sub	rsp, 32					; 00000020H
; File C:\Program Files\Microsoft Visual Studio\2022\Community\VC\Tools\MSVC\14.38.33130\include\vcruntime_exception.h
; Line 89
	lea	rax, OFFSET FLAT:??_7exception@std@@6B@
	mov	rdi, rcx
	mov	QWORD PTR [rcx], rax
	mov	ebx, edx
; Line 90
	add	rcx, 8
	call	QWORD PTR __imp___std_exception_destroy
	test	bl, 1
	je	SHORT $LN9@scalar
	mov	edx, 24
	mov	rcx, rdi
	call	??3@YAXPEAX_K@Z				; operator delete
$LN9@scalar:
	mov	rbx, QWORD PTR [rsp+48]
	mov	rax, rdi
	add	rsp, 32					; 00000020H
	pop	rdi
	ret	0
??_Gbad_alloc@std@@UEAAPEAXI@Z ENDP			; std::bad_alloc::`scalar deleting destructor'
_TEXT	ENDS
; Function compile flags: /Ogtpy
;	COMDAT ??1bad_alloc@std@@UEAA@XZ
_TEXT	SEGMENT
this$ = 8
??1bad_alloc@std@@UEAA@XZ PROC				; std::bad_alloc::~bad_alloc, COMDAT
; File C:\Program Files\Microsoft Visual Studio\2022\Community\VC\Tools\MSVC\14.38.33130\include\vcruntime_exception.h
; Line 89
	lea	rax, OFFSET FLAT:??_7exception@std@@6B@
	mov	QWORD PTR [rcx], rax
; Line 90
	add	rcx, 8
	rex_jmp	QWORD PTR __imp___std_exception_destroy
??1bad_alloc@std@@UEAA@XZ ENDP				; std::bad_alloc::~bad_alloc
_TEXT	ENDS
; Function compile flags: /Ogtpy
;	COMDAT ??0bad_array_new_length@std@@QEAA@XZ
_TEXT	SEGMENT
this$ = 8
??0bad_array_new_length@std@@QEAA@XZ PROC		; std::bad_array_new_length::bad_array_new_length, COMDAT
; File C:\Program Files\Microsoft Visual Studio\2022\Community\VC\Tools\MSVC\14.38.33130\include\vcruntime_exception.h
; Line 67
	lea	rax, OFFSET FLAT:??_C@_0BF@KINCDENJ@bad?5array?5new?5length@
	mov	QWORD PTR [rcx+16], 0
	mov	QWORD PTR [rcx+8], rax
; Line 141
	lea	rax, OFFSET FLAT:??_7bad_array_new_length@std@@6B@
	mov	QWORD PTR [rcx], rax
; Line 142
	mov	rax, rcx
	ret	0
??0bad_array_new_length@std@@QEAA@XZ ENDP		; std::bad_array_new_length::bad_array_new_length
_TEXT	ENDS
; Function compile flags: /Ogtpy
;	COMDAT ??_Gbad_array_new_length@std@@UEAAPEAXI@Z
_TEXT	SEGMENT
this$ = 48
__flags$ = 56
??_Gbad_array_new_length@std@@UEAAPEAXI@Z PROC		; std::bad_array_new_length::`scalar deleting destructor', COMDAT
$LN16:
	mov	QWORD PTR [rsp+8], rbx
	push	rdi
	sub	rsp, 32					; 00000020H
; File C:\Program Files\Microsoft Visual Studio\2022\Community\VC\Tools\MSVC\14.38.33130\include\vcruntime_exception.h
; Line 89
	lea	rax, OFFSET FLAT:??_7exception@std@@6B@
	mov	rdi, rcx
	mov	QWORD PTR [rcx], rax
	mov	ebx, edx
; Line 90
	add	rcx, 8
	call	QWORD PTR __imp___std_exception_destroy
	test	bl, 1
	je	SHORT $LN12@scalar
	mov	edx, 24
	mov	rcx, rdi
	call	??3@YAXPEAX_K@Z				; operator delete
$LN12@scalar:
	mov	rbx, QWORD PTR [rsp+48]
	mov	rax, rdi
	add	rsp, 32					; 00000020H
	pop	rdi
	ret	0
??_Gbad_array_new_length@std@@UEAAPEAXI@Z ENDP		; std::bad_array_new_length::`scalar deleting destructor'
_TEXT	ENDS
; Function compile flags: /Ogtpy
;	COMDAT ??1bad_array_new_length@std@@UEAA@XZ
_TEXT	SEGMENT
this$ = 8
??1bad_array_new_length@std@@UEAA@XZ PROC		; std::bad_array_new_length::~bad_array_new_length, COMDAT
; File C:\Program Files\Microsoft Visual Studio\2022\Community\VC\Tools\MSVC\14.38.33130\include\vcruntime_exception.h
; Line 89
	lea	rax, OFFSET FLAT:??_7exception@std@@6B@
	mov	QWORD PTR [rcx], rax
; Line 90
	add	rcx, 8
	rex_jmp	QWORD PTR __imp___std_exception_destroy
??1bad_array_new_length@std@@UEAA@XZ ENDP		; std::bad_array_new_length::~bad_array_new_length
_TEXT	ENDS
; Function compile flags: /Ogtpy
;	COMDAT ?_Throw_bad_array_new_length@std@@YAXXZ
_TEXT	SEGMENT
$T1 = 32
?_Throw_bad_array_new_length@std@@YAXXZ PROC		; std::_Throw_bad_array_new_length, COMDAT
; File C:\Program Files\Microsoft Visual Studio\2022\Community\VC\Tools\MSVC\14.38.33130\include\exception
; Line 330
$LN4:
	sub	rsp, 72					; 00000048H
; Line 331
	lea	rcx, QWORD PTR $T1[rsp]
	call	??0bad_array_new_length@std@@QEAA@XZ	; std::bad_array_new_length::bad_array_new_length
	lea	rdx, OFFSET FLAT:_TI3?AVbad_array_new_length@std@@
	lea	rcx, QWORD PTR $T1[rsp]
	call	_CxxThrowException
	int	3
$LN3@Throw_bad_:
?_Throw_bad_array_new_length@std@@YAXXZ ENDP		; std::_Throw_bad_array_new_length
_TEXT	ENDS
; Function compile flags: /Ogtpy
;	COMDAT ??0bad_array_new_length@std@@QEAA@AEBV01@@Z
_TEXT	SEGMENT
this$ = 48
__that$ = 56
??0bad_array_new_length@std@@QEAA@AEBV01@@Z PROC	; std::bad_array_new_length::bad_array_new_length, COMDAT
$LN10:
	push	rbx
	sub	rsp, 32					; 00000020H
	mov	rbx, rcx
	mov	rax, rdx
; File C:\Program Files\Microsoft Visual Studio\2022\Community\VC\Tools\MSVC\14.38.33130\include\vcruntime_exception.h
; Line 72
	lea	rcx, OFFSET FLAT:??_7exception@std@@6B@
	xorps	xmm0, xmm0
; Line 71
	lea	rdx, QWORD PTR [rbx+8]
; Line 72
	mov	QWORD PTR [rbx], rcx
; Line 73
	lea	rcx, QWORD PTR [rax+8]
	movups	XMMWORD PTR [rdx], xmm0
	call	QWORD PTR __imp___std_exception_copy
	lea	rax, OFFSET FLAT:??_7bad_array_new_length@std@@6B@
	mov	QWORD PTR [rbx], rax
	mov	rax, rbx
	add	rsp, 32					; 00000020H
	pop	rbx
	ret	0
??0bad_array_new_length@std@@QEAA@AEBV01@@Z ENDP	; std::bad_array_new_length::bad_array_new_length
_TEXT	ENDS
; Function compile flags: /Ogtpy
;	COMDAT ??0bad_alloc@std@@QEAA@AEBV01@@Z
_TEXT	SEGMENT
this$ = 48
__that$ = 56
??0bad_alloc@std@@QEAA@AEBV01@@Z PROC			; std::bad_alloc::bad_alloc, COMDAT
$LN7:
	push	rbx
	sub	rsp, 32					; 00000020H
	mov	rbx, rcx
	mov	rax, rdx
; File C:\Program Files\Microsoft Visual Studio\2022\Community\VC\Tools\MSVC\14.38.33130\include\vcruntime_exception.h
; Line 72
	lea	rcx, OFFSET FLAT:??_7exception@std@@6B@
	xorps	xmm0, xmm0
; Line 71
	lea	rdx, QWORD PTR [rbx+8]
; Line 72
	mov	QWORD PTR [rbx], rcx
; Line 73
	lea	rcx, QWORD PTR [rax+8]
	movups	XMMWORD PTR [rdx], xmm0
	call	QWORD PTR __imp___std_exception_copy
	lea	rax, OFFSET FLAT:??_7bad_alloc@std@@6B@
	mov	QWORD PTR [rbx], rax
	mov	rax, rbx
	add	rsp, 32					; 00000020H
	pop	rbx
	ret	0
??0bad_alloc@std@@QEAA@AEBV01@@Z ENDP			; std::bad_alloc::bad_alloc
_TEXT	ENDS
; Function compile flags: /Ogtpy
;	COMDAT ?max@?$numeric_limits@_J@std@@SA_JXZ
_TEXT	SEGMENT
?max@?$numeric_limits@_J@std@@SA_JXZ PROC		; std::numeric_limits<__int64>::max, COMDAT
; File C:\Program Files\Microsoft Visual Studio\2022\Community\VC\Tools\MSVC\14.38.33130\include\limits
; Line 636
	mov	rax, 9223372036854775807		; 7fffffffffffffffH
; Line 637
	ret	0
?max@?$numeric_limits@_J@std@@SA_JXZ ENDP		; std::numeric_limits<__int64>::max
_TEXT	ENDS
; Function compile flags: /Ogtpy
;	COMDAT ?_Allocate@_Default_allocate_traits@std@@SAPEAX_K@Z
_TEXT	SEGMENT
_Bytes$ = 8
?_Allocate@_Default_allocate_traits@std@@SAPEAX_K@Z PROC ; std::_Default_allocate_traits::_Allocate, COMDAT
; File C:\Program Files\Microsoft Visual Studio\2022\Community\VC\Tools\MSVC\14.38.33130\include\xmemory
; Line 86
	jmp	??2@YAPEAX_K@Z				; operator new
?_Allocate@_Default_allocate_traits@std@@SAPEAX_K@Z ENDP ; std::_Default_allocate_traits::_Allocate
_TEXT	ENDS
; Function compile flags: /Ogtpy
;	COMDAT ?_Adjust_manually_vector_aligned@std@@YAXAEAPEAXAEA_K@Z
_TEXT	SEGMENT
_Ptr$ = 48
_Bytes$ = 56
?_Adjust_manually_vector_aligned@std@@YAXAEAPEAXAEA_K@Z PROC ; std::_Adjust_manually_vector_aligned, COMDAT
; File C:\Program Files\Microsoft Visual Studio\2022\Community\VC\Tools\MSVC\14.38.33130\include\xmemory
; Line 154
$LN13:
	sub	rsp, 40					; 00000028H
; Line 156
	add	QWORD PTR [rdx], 39			; 00000027H
; Line 159
	mov	rax, QWORD PTR [rcx]
	mov	rdx, QWORD PTR [rax-8]
; Line 172
	sub	rax, rdx
; Line 173
	add	rax, -8
	cmp	rax, 31
	ja	SHORT $LN7@Adjust_man
; Line 174
	mov	QWORD PTR [rcx], rdx
; Line 175
	add	rsp, 40					; 00000028H
	ret	0
$LN7@Adjust_man:
; Line 173
	call	QWORD PTR __imp__invalid_parameter_noinfo_noreturn
	int	3
$LN11@Adjust_man:
?_Adjust_manually_vector_aligned@std@@YAXAEAPEAXAEA_K@Z ENDP ; std::_Adjust_manually_vector_aligned
_TEXT	ENDS
; Function compile flags: /Ogtpy
;	COMDAT ?_Orphan_all@_Container_base0@std@@QEAAXXZ
_TEXT	SEGMENT
this$dead$ = 8
?_Orphan_all@_Container_base0@std@@QEAAXXZ PROC		; std::_Container_base0::_Orphan_all, COMDAT
; File C:\Program Files\Microsoft Visual Studio\2022\Community\VC\Tools\MSVC\14.38.33130\include\xmemory
; Line 1172
	ret	0
?_Orphan_all@_Container_base0@std@@QEAAXXZ ENDP		; std::_Container_base0::_Orphan_all
_TEXT	ENDS
; Function compile flags: /Ogtpy
;	COMDAT ?_Swap_proxy_and_iterators@_Container_base0@std@@QEAAXAEAU12@@Z
_TEXT	SEGMENT
this$dead$ = 8
__formal$dead$ = 16
?_Swap_proxy_and_iterators@_Container_base0@std@@QEAAXAEAU12@@Z PROC ; std::_Container_base0::_Swap_proxy_and_iterators, COMDAT
; File C:\Program Files\Microsoft Visual Studio\2022\Community\VC\Tools\MSVC\14.38.33130\include\xmemory
; Line 1173
	ret	0
?_Swap_proxy_and_iterators@_Container_base0@std@@QEAAXAEAU12@@Z ENDP ; std::_Container_base0::_Swap_proxy_and_iterators
_TEXT	ENDS
; Function compile flags: /Ogtpy
;	COMDAT ?_Alloc_proxy@_Container_base0@std@@QEAAXAEBU_Fake_allocator@2@@Z
_TEXT	SEGMENT
this$dead$ = 8
__formal$dead$ = 16
?_Alloc_proxy@_Container_base0@std@@QEAAXAEBU_Fake_allocator@2@@Z PROC ; std::_Container_base0::_Alloc_proxy, COMDAT
; File C:\Program Files\Microsoft Visual Studio\2022\Community\VC\Tools\MSVC\14.38.33130\include\xmemory
; Line 1174
	ret	0
?_Alloc_proxy@_Container_base0@std@@QEAAXAEBU_Fake_allocator@2@@Z ENDP ; std::_Container_base0::_Alloc_proxy
_TEXT	ENDS
; Function compile flags: /Ogtpy
;	COMDAT ??0_Fake_proxy_ptr_impl@std@@QEAA@AEBU_Fake_allocator@1@AEBU_Container_base0@1@@Z
_TEXT	SEGMENT
this$ = 8
__formal$dead$ = 16
__formal$dead$ = 24
??0_Fake_proxy_ptr_impl@std@@QEAA@AEBU_Fake_allocator@1@AEBU_Container_base0@1@@Z PROC ; std::_Fake_proxy_ptr_impl::_Fake_proxy_ptr_impl, COMDAT
; File C:\Program Files\Microsoft Visual Studio\2022\Community\VC\Tools\MSVC\14.38.33130\include\xmemory
; Line 1438
	mov	rax, rcx
	ret	0
??0_Fake_proxy_ptr_impl@std@@QEAA@AEBU_Fake_allocator@1@AEBU_Container_base0@1@@Z ENDP ; std::_Fake_proxy_ptr_impl::_Fake_proxy_ptr_impl
_TEXT	ENDS
; Function compile flags: /Ogtpy
;	COMDAT ?_Release@_Fake_proxy_ptr_impl@std@@QEAAXXZ
_TEXT	SEGMENT
this$dead$ = 8
?_Release@_Fake_proxy_ptr_impl@std@@QEAAXXZ PROC	; std::_Fake_proxy_ptr_impl::_Release, COMDAT
; File C:\Program Files\Microsoft Visual Studio\2022\Community\VC\Tools\MSVC\14.38.33130\include\xmemory
; Line 1441
	ret	0
?_Release@_Fake_proxy_ptr_impl@std@@QEAAXXZ ENDP	; std::_Fake_proxy_ptr_impl::_Release
_TEXT	ENDS
; Function compile flags: /Ogtpy
;	COMDAT ?_Xlen_string@std@@YAXXZ
_TEXT	SEGMENT
?_Xlen_string@std@@YAXXZ PROC				; std::_Xlen_string, COMDAT
; File C:\Program Files\Microsoft Visual Studio\2022\Community\VC\Tools\MSVC\14.38.33130\include\xstring
; Line 2313
$LN4:
	sub	rsp, 40					; 00000028H
; Line 2314
	lea	rcx, OFFSET FLAT:??_C@_0BA@JFNIOLAK@string?5too?5long@
	call	QWORD PTR __imp_?_Xlength_error@std@@YAXPEBD@Z
	int	3
$LN3@Xlen_strin:
?_Xlen_string@std@@YAXXZ ENDP				; std::_Xlen_string
_TEXT	ENDS
; Function compile flags: /Ogtpy
;	COMDAT ??0bad_cast@std@@QEAA@XZ
_TEXT	SEGMENT
this$ = 8
??0bad_cast@std@@QEAA@XZ PROC				; std::bad_cast::bad_cast, COMDAT
; File C:\Program Files\Microsoft Visual Studio\2022\Community\VC\Tools\MSVC\14.38.33130\include\vcruntime_typeinfo.h
; File C:\Program Files\Microsoft Visual Studio\2022\Community\VC\Tools\MSVC\14.38.33130\include\vcruntime_exception.h
; Line 67
	lea	rax, OFFSET FLAT:??_C@_08EPJLHIJG@bad?5cast@
	mov	QWORD PTR [rcx+16], 0
	mov	QWORD PTR [rcx+8], rax
; File C:\Program Files\Microsoft Visual Studio\2022\Community\VC\Tools\MSVC\14.38.33130\include\vcruntime_typeinfo.h
; Line 153
	lea	rax, OFFSET FLAT:??_7bad_cast@std@@6B@
	mov	QWORD PTR [rcx], rax
; Line 154
	mov	rax, rcx
	ret	0
??0bad_cast@std@@QEAA@XZ ENDP				; std::bad_cast::bad_cast
_TEXT	ENDS
; Function compile flags: /Ogtpy
;	COMDAT ??_Gbad_cast@std@@UEAAPEAXI@Z
_TEXT	SEGMENT
this$ = 48
__flags$ = 56
??_Gbad_cast@std@@UEAAPEAXI@Z PROC			; std::bad_cast::`scalar deleting destructor', COMDAT
$LN13:
	mov	QWORD PTR [rsp+8], rbx
	push	rdi
	sub	rsp, 32					; 00000020H
; File C:\Program Files\Microsoft Visual Studio\2022\Community\VC\Tools\MSVC\14.38.33130\include\vcruntime_exception.h
; Line 89
	lea	rax, OFFSET FLAT:??_7exception@std@@6B@
	mov	rdi, rcx
	mov	QWORD PTR [rcx], rax
	mov	ebx, edx
; Line 90
	add	rcx, 8
	call	QWORD PTR __imp___std_exception_destroy
	test	bl, 1
	je	SHORT $LN9@scalar
	mov	edx, 24
	mov	rcx, rdi
	call	??3@YAXPEAX_K@Z				; operator delete
$LN9@scalar:
	mov	rbx, QWORD PTR [rsp+48]
	mov	rax, rdi
	add	rsp, 32					; 00000020H
	pop	rdi
	ret	0
??_Gbad_cast@std@@UEAAPEAXI@Z ENDP			; std::bad_cast::`scalar deleting destructor'
_TEXT	ENDS
; Function compile flags: /Ogtpy
;	COMDAT ??1bad_cast@std@@UEAA@XZ
_TEXT	SEGMENT
this$ = 8
??1bad_cast@std@@UEAA@XZ PROC				; std::bad_cast::~bad_cast, COMDAT
; File C:\Program Files\Microsoft Visual Studio\2022\Community\VC\Tools\MSVC\14.38.33130\include\vcruntime_exception.h
; Line 89
	lea	rax, OFFSET FLAT:??_7exception@std@@6B@
	mov	QWORD PTR [rcx], rax
; Line 90
	add	rcx, 8
	rex_jmp	QWORD PTR __imp___std_exception_destroy
??1bad_cast@std@@UEAA@XZ ENDP				; std::bad_cast::~bad_cast
_TEXT	ENDS
; Function compile flags: /Ogtpy
;	COMDAT ?_Throw_bad_cast@std@@YAXXZ
_TEXT	SEGMENT
$T1 = 32
?_Throw_bad_cast@std@@YAXXZ PROC			; std::_Throw_bad_cast, COMDAT
; File C:\Program Files\Microsoft Visual Studio\2022\Community\VC\Tools\MSVC\14.38.33130\include\typeinfo
; Line 66
$LN4:
	sub	rsp, 72					; 00000048H
; Line 67
	lea	rcx, QWORD PTR $T1[rsp]
	call	??0bad_cast@std@@QEAA@XZ		; std::bad_cast::bad_cast
	lea	rdx, OFFSET FLAT:_TI2?AVbad_cast@std@@
	lea	rcx, QWORD PTR $T1[rsp]
	call	_CxxThrowException
	int	3
$LN3@Throw_bad_:
?_Throw_bad_cast@std@@YAXXZ ENDP			; std::_Throw_bad_cast
_TEXT	ENDS
; Function compile flags: /Ogtpy
;	COMDAT ??0bad_cast@std@@QEAA@AEBV01@@Z
_TEXT	SEGMENT
this$ = 48
__that$ = 56
??0bad_cast@std@@QEAA@AEBV01@@Z PROC			; std::bad_cast::bad_cast, COMDAT
$LN7:
	push	rbx
	sub	rsp, 32					; 00000020H
	mov	rbx, rcx
	mov	rax, rdx
; File C:\Program Files\Microsoft Visual Studio\2022\Community\VC\Tools\MSVC\14.38.33130\include\vcruntime_exception.h
; Line 72
	lea	rcx, OFFSET FLAT:??_7exception@std@@6B@
	xorps	xmm0, xmm0
; Line 71
	lea	rdx, QWORD PTR [rbx+8]
; Line 72
	mov	QWORD PTR [rbx], rcx
; Line 73
	lea	rcx, QWORD PTR [rax+8]
	movups	XMMWORD PTR [rdx], xmm0
	call	QWORD PTR __imp___std_exception_copy
	lea	rax, OFFSET FLAT:??_7bad_cast@std@@6B@
	mov	QWORD PTR [rbx], rax
	mov	rax, rbx
	add	rsp, 32					; 00000020H
	pop	rbx
	ret	0
??0bad_cast@std@@QEAA@AEBV01@@Z ENDP			; std::bad_cast::bad_cast
_TEXT	ENDS
; Function compile flags: /Ogtpy
;	COMDAT ??1locale@std@@QEAA@XZ
_TEXT	SEGMENT
this$ = 48
??1locale@std@@QEAA@XZ PROC				; std::locale::~locale, COMDAT
; File C:\Program Files\Microsoft Visual Studio\2022\Community\VC\Tools\MSVC\14.38.33130\include\xlocale
; Line 357
$LN8:
	sub	rsp, 40					; 00000028H
; Line 358
	mov	rcx, QWORD PTR [rcx+8]
	test	rcx, rcx
	je	SHORT $LN4@locale
; Line 359
	mov	rax, QWORD PTR [rcx]
	call	QWORD PTR [rax+16]
	test	rax, rax
	je	SHORT $LN4@locale
	mov	r8, QWORD PTR [rax]
	mov	edx, 1
	mov	rcx, rax
; Line 361
	add	rsp, 40					; 00000028H
; Line 359
	rex_jmp	QWORD PTR [r8]
$LN4@locale:
; Line 361
	add	rsp, 40					; 00000028H
	ret	0
??1locale@std@@QEAA@XZ ENDP				; std::locale::~locale
_TEXT	ENDS
; Function compile flags: /Ogtpy
;	COMDAT ?_Getfacet@locale@std@@QEBAPEBVfacet@12@_K@Z
_TEXT	SEGMENT
this$ = 48
_Id$ = 56
?_Getfacet@locale@std@@QEBAPEBVfacet@12@_K@Z PROC	; std::locale::_Getfacet, COMDAT
; File C:\Program Files\Microsoft Visual Studio\2022\Community\VC\Tools\MSVC\14.38.33130\include\xlocale
; Line 380
$LN13:
	mov	QWORD PTR [rsp+8], rbx
	push	rdi
	sub	rsp, 32					; 00000020H
	mov	rbx, rdx
; Line 381
	mov	rdx, QWORD PTR [rcx+8]
	lea	rdi, QWORD PTR [rbx*8]
	cmp	rbx, QWORD PTR [rdx+24]
	jae	SHORT $LN6@Getfacet
	mov	rax, QWORD PTR [rdx+16]
	mov	rax, QWORD PTR [rdi+rax]
; Line 382
	test	rax, rax
	jne	SHORT $LN3@Getfacet
	jmp	SHORT $LN8@Getfacet
$LN6@Getfacet:
; Line 381
	xor	eax, eax
$LN8@Getfacet:
; Line 382
	cmp	BYTE PTR [rdx+36], 0
	je	SHORT $LN3@Getfacet
; Line 387
	call	QWORD PTR __imp_?_Getgloballocale@locale@std@@CAPEAV_Locimp@12@XZ
; Line 388
	cmp	rbx, QWORD PTR [rax+24]
	jae	SHORT $LN4@Getfacet
; Line 389
	mov	rax, QWORD PTR [rax+16]
	mov	rax, QWORD PTR [rdi+rax]
; Line 393
	mov	rbx, QWORD PTR [rsp+48]
	add	rsp, 32					; 00000020H
	pop	rdi
	ret	0
$LN4@Getfacet:
; Line 392
	xor	eax, eax
$LN3@Getfacet:
; Line 393
	mov	rbx, QWORD PTR [rsp+48]
	add	rsp, 32					; 00000020H
	pop	rdi
	ret	0
?_Getfacet@locale@std@@QEBAPEBVfacet@12@_K@Z ENDP	; std::locale::_Getfacet
_TEXT	ENDS
; Function compile flags: /Ogtpy
;	COMDAT ?dec@std@@YAAEAVios_base@1@AEAV21@@Z
_TEXT	SEGMENT
_Iosbase$ = 8
?dec@std@@YAAEAVios_base@1@AEAV21@@Z PROC		; std::dec, COMDAT
; File C:\Program Files\Microsoft Visual Studio\2022\Community\VC\Tools\MSVC\14.38.33130\include\ios
; File C:\Program Files\Microsoft Visual Studio\2022\Community\VC\Tools\MSVC\14.38.33130\include\xiosbase
; Line 268
	mov	eax, DWORD PTR [rcx+24]
	and	eax, -3073				; fffffffffffff3ffH
	bts	eax, 9
	mov	DWORD PTR [rcx+24], eax
; File C:\Program Files\Microsoft Visual Studio\2022\Community\VC\Tools\MSVC\14.38.33130\include\ios
; Line 191
	mov	rax, rcx
; Line 192
	ret	0
?dec@std@@YAAEAVios_base@1@AEAV21@@Z ENDP		; std::dec
_TEXT	ENDS
; Function compile flags: /Ogtpy
;	COMDAT ?hex@std@@YAAEAVios_base@1@AEAV21@@Z
_TEXT	SEGMENT
_Iosbase$ = 8
?hex@std@@YAAEAVios_base@1@AEAV21@@Z PROC		; std::hex, COMDAT
; File C:\Program Files\Microsoft Visual Studio\2022\Community\VC\Tools\MSVC\14.38.33130\include\ios
; File C:\Program Files\Microsoft Visual Studio\2022\Community\VC\Tools\MSVC\14.38.33130\include\xiosbase
; Line 268
	mov	eax, DWORD PTR [rcx+24]
	and	eax, -1537				; fffffffffffff9ffH
	bts	eax, 11
	mov	DWORD PTR [rcx+24], eax
; File C:\Program Files\Microsoft Visual Studio\2022\Community\VC\Tools\MSVC\14.38.33130\include\ios
; Line 206
	mov	rax, rcx
; Line 207
	ret	0
?hex@std@@YAAEAVios_base@1@AEAV21@@Z ENDP		; std::hex
_TEXT	ENDS
; Function compile flags: /Ogtpy
;	COMDAT ?now@steady_clock@chrono@std@@SA?AV?$time_point@Usteady_clock@chrono@std@@V?$duration@_JU?$ratio@$00$0DLJKMKAA@@std@@@23@@23@XZ
_TEXT	SEGMENT
__$ReturnUdt$ = 48
?now@steady_clock@chrono@std@@SA?AV?$time_point@Usteady_clock@chrono@std@@V?$duration@_JU?$ratio@$00$0DLJKMKAA@@std@@@23@@23@XZ PROC ; std::chrono::steady_clock::now, COMDAT
; File C:\Program Files\Microsoft Visual Studio\2022\Community\VC\Tools\MSVC\14.38.33130\include\__msvc_chrono.hpp
; Line 678
$LN25:
	mov	QWORD PTR [rsp+8], rbx
	push	rdi
	sub	rsp, 32					; 00000020H
	mov	rbx, rcx
; Line 679
	call	QWORD PTR __imp__Query_perf_frequency
	mov	rdi, rax
; Line 680
	call	QWORD PTR __imp__Query_perf_counter
	mov	r9, rax
; Line 687
	cmp	rdi, 10000000				; 00989680H
	jne	SHORT $LN2@now
; Line 693
	imul	rax, r9, 100				; 00000064H
; Line 710
	mov	QWORD PTR [rbx], rax
	mov	rax, rbx
	mov	rbx, QWORD PTR [rsp+48]
	add	rsp, 32					; 00000020H
	pop	rdi
	ret	0
$LN2@now:
; Line 694
	cmp	rdi, 24000000				; 016e3600H
	jne	SHORT $LN4@now
; Line 697
	mov	r10, -5551535331153507085		; b2f4fc0794908cf3H
	mov	rax, r10
	imul	r9
	mov	rax, r10
	lea	r8, QWORD PTR [r9+rdx]
	sar	r8, 24
	mov	rcx, r8
	shr	rcx, 63					; 0000003fH
	add	r8, rcx
	imul	rcx, r8, 24000000			; 016e3600H
	sub	r9, rcx
	imul	rcx, r9, 1000000000			; 3b9aca00H
	imul	rcx
	add	rdx, rcx
	sar	rdx, 24
	mov	rax, rdx
	shr	rax, 63					; 0000003fH
	add	rdx, rax
	imul	rax, r8, 1000000000			; 3b9aca00H
; Line 698
	add	rdx, rax
; Line 710
	mov	rax, rbx
; Line 203
	mov	QWORD PTR [rbx], rdx
; Line 710
	mov	rbx, QWORD PTR [rsp+48]
	add	rsp, 32					; 00000020H
	pop	rdi
	ret	0
$LN4@now:
; Line 706
	cdq
	idiv	rdi
	mov	rcx, rax
	imul	rax, rdx, 1000000000			; 3b9aca00H
	imul	rcx, rcx, 1000000000			; 3b9aca00H
	cdq
	idiv	rdi
; Line 707
	add	rax, rcx
; Line 710
	mov	QWORD PTR [rbx], rax
	mov	rax, rbx
	mov	rbx, QWORD PTR [rsp+48]
	add	rsp, 32					; 00000020H
	pop	rdi
	ret	0
?now@steady_clock@chrono@std@@SA?AV?$time_point@Usteady_clock@chrono@std@@V?$duration@_JU?$ratio@$00$0DLJKMKAA@@std@@@23@@23@XZ ENDP ; std::chrono::steady_clock::now
_TEXT	ENDS
; Function compile flags: /Ogtpy
;	COMDAT ??$?0_J$0A@@?$duration@_JU?$ratio@$00$0DLJKMKAA@@std@@@chrono@std@@QEAA@AEB_J@Z
_TEXT	SEGMENT
this$ = 8
_Val$ = 16
??$?0_J$0A@@?$duration@_JU?$ratio@$00$0DLJKMKAA@@std@@@chrono@std@@QEAA@AEB_J@Z PROC ; std::chrono::duration<__int64,std::ratio<1,1000000000> >::duration<__int64,std::ratio<1,1000000000> ><__int64,0>, COMDAT
; File C:\Program Files\Microsoft Visual Studio\2022\Community\VC\Tools\MSVC\14.38.33130\include\__msvc_chrono.hpp
; Line 98
	mov	rax, QWORD PTR [rdx]
	mov	QWORD PTR [rcx], rax
	mov	rax, rcx
	ret	0
??$?0_J$0A@@?$duration@_JU?$ratio@$00$0DLJKMKAA@@std@@@chrono@std@@QEAA@AEB_J@Z ENDP ; std::chrono::duration<__int64,std::ratio<1,1000000000> >::duration<__int64,std::ratio<1,1000000000> ><__int64,0>
_TEXT	ENDS
; Function compile flags: /Ogtpy
;	COMDAT ?count@?$duration@_JU?$ratio@$00$0DLJKMKAA@@std@@@chrono@std@@QEBA_JXZ
_TEXT	SEGMENT
this$ = 8
?count@?$duration@_JU?$ratio@$00$0DLJKMKAA@@std@@@chrono@std@@QEBA_JXZ PROC ; std::chrono::duration<__int64,std::ratio<1,1000000000> >::count, COMDAT
; File C:\Program Files\Microsoft Visual Studio\2022\Community\VC\Tools\MSVC\14.38.33130\include\__msvc_chrono.hpp
; Line 109
	mov	rax, QWORD PTR [rcx]
; Line 110
	ret	0
?count@?$duration@_JU?$ratio@$00$0DLJKMKAA@@std@@@chrono@std@@QEBA_JXZ ENDP ; std::chrono::duration<__int64,std::ratio<1,1000000000> >::count
_TEXT	ENDS
; Function compile flags: /Ogtpy
;	COMDAT ?count@?$duration@NU?$ratio@$00$00@std@@@chrono@std@@QEBANXZ
_TEXT	SEGMENT
this$ = 8
?count@?$duration@NU?$ratio@$00$00@std@@@chrono@std@@QEBANXZ PROC ; std::chrono::duration<double,std::ratio<1,1> >::count, COMDAT
; File C:\Program Files\Microsoft Visual Studio\2022\Community\VC\Tools\MSVC\14.38.33130\include\__msvc_chrono.hpp
; Line 109
	movsd	xmm0, QWORD PTR [rcx]
; Line 110
	ret	0
?count@?$duration@NU?$ratio@$00$00@std@@@chrono@std@@QEBANXZ ENDP ; std::chrono::duration<double,std::ratio<1,1> >::count
_TEXT	ENDS
; Function compile flags: /Ogtpy
;	COMDAT ??0?$time_point@Usteady_clock@chrono@std@@V?$duration@_JU?$ratio@$00$0DLJKMKAA@@std@@@23@@chrono@std@@QEAA@AEBV?$duration@_JU?$ratio@$00$0DLJKMKAA@@std@@@12@@Z
_TEXT	SEGMENT
this$ = 8
_Other$ = 16
??0?$time_point@Usteady_clock@chrono@std@@V?$duration@_JU?$ratio@$00$0DLJKMKAA@@std@@@23@@chrono@std@@QEAA@AEBV?$duration@_JU?$ratio@$00$0DLJKMKAA@@std@@@12@@Z PROC ; std::chrono::time_point<std::chrono::steady_clock,std::chrono::duration<__int64,std::ratio<1,1000000000> > >::time_point<std::chrono::steady_clock,std::chrono::duration<__int64,std::ratio<1,1000000000> > >, COMDAT
; File C:\Program Files\Microsoft Visual Studio\2022\Community\VC\Tools\MSVC\14.38.33130\include\__msvc_chrono.hpp
; Line 203
	mov	rax, QWORD PTR [rdx]
	mov	QWORD PTR [rcx], rax
	mov	rax, rcx
	ret	0
??0?$time_point@Usteady_clock@chrono@std@@V?$duration@_JU?$ratio@$00$0DLJKMKAA@@std@@@23@@chrono@std@@QEAA@AEBV?$duration@_JU?$ratio@$00$0DLJKMKAA@@std@@@12@@Z ENDP ; std::chrono::time_point<std::chrono::steady_clock,std::chrono::duration<__int64,std::ratio<1,1000000000> > >::time_point<std::chrono::steady_clock,std::chrono::duration<__int64,std::ratio<1,1000000000> > >
_TEXT	ENDS
; Function compile flags: /Ogtpy
;	COMDAT ?CheckMHResult@@YAXW4MH_STATUS@@AEBV?$basic_string@DU?$char_traits@D@std@@V?$allocator@D@2@@std@@@Z
_TEXT	SEGMENT
status$ = 48
functionName$ = 56
?CheckMHResult@@YAXW4MH_STATUS@@AEBV?$basic_string@DU?$char_traits@D@std@@V?$allocator@D@2@@std@@@Z PROC ; CheckMHResult, COMDAT
; File C:\Users\hugol\source\repos\ConsoleApplication3\ConsoleApplication3\ConsoleApplication3.cpp
; Line 43
	test	ecx, ecx
	je	SHORT $LN6@CheckMHRes
	mov	QWORD PTR [rsp+8], rbx
	push	rdi
	sub	rsp, 32					; 00000020H
; Line 42
	mov	rdi, rdx
	mov	ebx, ecx
; Line 44
	mov	rcx, QWORD PTR __imp_?cerr@std@@3V?$basic_ostream@DU?$char_traits@D@std@@@1@A
	lea	rdx, OFFSET FLAT:??_C@_0BC@JPGOJEBA@MinHook?5error?5in?5@
	call	??$?6U?$char_traits@D@std@@@std@@YAAEAV?$basic_ostream@DU?$char_traits@D@std@@@0@AEAV10@PEBD@Z ; std::operator<<<std::char_traits<char> >
	mov	rcx, rax
	mov	rdx, rdi
	call	??$?6DU?$char_traits@D@std@@V?$allocator@D@1@@std@@YAAEAV?$basic_ostream@DU?$char_traits@D@std@@@0@AEAV10@AEBV?$basic_string@DU?$char_traits@D@std@@V?$allocator@D@2@@0@@Z ; std::operator<<<char,std::char_traits<char>,std::allocator<char> >
	mov	rcx, rax
	lea	rdx, OFFSET FLAT:??_C@_02LMMGGCAJ@?3?5@
	call	??$?6U?$char_traits@D@std@@@std@@YAAEAV?$basic_ostream@DU?$char_traits@D@std@@@0@AEAV10@PEBD@Z ; std::operator<<<std::char_traits<char> >
	mov	ecx, ebx
	mov	r8, rax
	call	MH_StatusToString
	mov	rdx, rax
	mov	rcx, r8
	call	??$?6U?$char_traits@D@std@@@std@@YAAEAV?$basic_ostream@DU?$char_traits@D@std@@@0@AEAV10@PEBD@Z ; std::operator<<<std::char_traits<char> >
	lea	rdx, OFFSET FLAT:??$endl@DU?$char_traits@D@std@@@std@@YAAEAV?$basic_ostream@DU?$char_traits@D@std@@@0@AEAV10@@Z ; std::endl<char,std::char_traits<char> >
	mov	rcx, rax
	call	QWORD PTR __imp_??6?$basic_ostream@DU?$char_traits@D@std@@@std@@QEAAAEAV01@P6AAEAV01@AEAV01@@Z@Z
; Line 45
	mov	ecx, 1
	call	QWORD PTR __imp_exit
	int	3
$LN6@CheckMHRes:
; Line 47
	ret	0
$LN5@CheckMHRes:
?CheckMHResult@@YAXW4MH_STATUS@@AEBV?$basic_string@DU?$char_traits@D@std@@V?$allocator@D@2@@std@@@Z ENDP ; CheckMHResult
_TEXT	ENDS
; Function compile flags: /Ogtpy
;	COMDAT ?PrintSourceProcess@@YAXXZ
_TEXT	SEGMENT
hMod$1 = 32
cbNeeded$2 = 40
szProcessName$3 = 48
__$ArrayPad$ = 576
?PrintSourceProcess@@YAXXZ PROC				; PrintSourceProcess, COMDAT
; File C:\Users\hugol\source\repos\ConsoleApplication3\ConsoleApplication3\ConsoleApplication3.cpp
; Line 49
	mov	QWORD PTR [rsp+8], rbx
	push	rdi
	sub	rsp, 592				; 00000250H
	mov	rax, QWORD PTR __security_cookie
	xor	rax, rsp
	mov	QWORD PTR __$ArrayPad$[rsp], rax
; Line 50
	call	QWORD PTR __imp_GetCurrentProcessId
; Line 51
	xor	edx, edx
	mov	ecx, 1040				; 00000410H
	mov	r8d, eax
	mov	edi, eax
	call	QWORD PTR __imp_OpenProcess
	mov	rbx, rax
; Line 52
	test	rax, rax
	je	SHORT $LN2@PrintSourc
; Line 53
	movups	xmm0, XMMWORD PTR ??_C@_1BE@ELICABCK@?$AA?$DM?$AAu?$AAn?$AAk?$AAn?$AAo?$AAw?$AAn?$AA?$DO@
	mov	ecx, DWORD PTR ??_C@_1BE@ELICABCK@?$AA?$DM?$AAu?$AAn?$AAk?$AAn?$AAo?$AAw?$AAn?$AA?$DO@+16
	xor	edx, edx
	mov	DWORD PTR szProcessName$3[rsp+16], ecx
	mov	r8d, 500				; 000001f4H
	lea	rcx, QWORD PTR szProcessName$3[rsp+20]
	movaps	XMMWORD PTR szProcessName$3[rsp], xmm0
	call	memset
; Line 57
	lea	r9, QWORD PTR cbNeeded$2[rsp]
	mov	r8d, 8
	lea	rdx, QWORD PTR hMod$1[rsp]
	mov	rcx, rbx
	call	QWORD PTR __imp_K32EnumProcessModules
	test	eax, eax
	je	SHORT $LN3@PrintSourc
; Line 58
	mov	rdx, QWORD PTR hMod$1[rsp]
	lea	r8, QWORD PTR szProcessName$3[rsp]
	mov	r9d, 260				; 00000104H
	mov	rcx, rbx
	call	QWORD PTR __imp_K32GetModuleBaseNameW
$LN3@PrintSourc:
; Line 61
	lea	r8, QWORD PTR szProcessName$3[rsp]
	mov	edx, edi
	lea	rcx, OFFSET FLAT:??_C@_1GC@CGGHBNON@?$AAH?$AAo?$AAo?$AAk?$AAi?$AAn?$AAg?$AA?5?$AAt?$AAo?$AA?3?$AA?5?$AAP?$AAr?$AAo@
	call	wprintf
; Line 63
	mov	rcx, rbx
	call	QWORD PTR __imp_CloseHandle
$LN2@PrintSourc:
; Line 65
	mov	rcx, QWORD PTR __$ArrayPad$[rsp]
	xor	rcx, rsp
	call	__security_check_cookie
	mov	rbx, QWORD PTR [rsp+608]
	add	rsp, 592				; 00000250H
	pop	rdi
	ret	0
?PrintSourceProcess@@YAXXZ ENDP				; PrintSourceProcess
_TEXT	ENDS
; Function compile flags: /Ogtpy
;	COMDAT ?HookedVirtualAlloc@@YAPEAXPEAX_KKK@Z
_TEXT	SEGMENT
lpAddress$ = 48
dwSize$ = 56
flAllocationType$ = 64
flProtect$ = 72
?HookedVirtualAlloc@@YAPEAXPEAX_KKK@Z PROC		; HookedVirtualAlloc, COMDAT
; File C:\Users\hugol\source\repos\ConsoleApplication3\ConsoleApplication3\ConsoleApplication3.cpp
; Line 77
	mov	QWORD PTR [rsp+8], rbx
	mov	QWORD PTR [rsp+16], rbp
	mov	QWORD PTR [rsp+24], rsi
	push	rdi
	sub	rsp, 32					; 00000020H
; Line 78
	mov	rax, QWORD PTR ?originalVirtualAlloc@@3P6APEAXPEAX_KKK@ZEA ; originalVirtualAlloc
	mov	ebp, r9d
	mov	edi, r8d
	mov	rbx, rdx
	call	rax
; Line 80
	mov	rcx, QWORD PTR __imp_?cout@std@@3V?$basic_ostream@DU?$char_traits@D@std@@@1@A
	lea	rdx, OFFSET FLAT:??_C@_0BN@PKEFEJNJ@HookedVirtualAlloc?3?5Address?$DN@
	mov	rsi, rax
	call	??$?6U?$char_traits@D@std@@@std@@YAAEAV?$basic_ostream@DU?$char_traits@D@std@@@0@AEAV10@PEBD@Z ; std::operator<<<std::char_traits<char> >
	mov	rdx, rsi
	mov	rcx, rax
	call	QWORD PTR __imp_??6?$basic_ostream@DU?$char_traits@D@std@@@std@@QEAAAEAV01@PEBX@Z
	mov	rcx, rax
	lea	rdx, OFFSET FLAT:??_C@_06JDGAHHPF@?5Size?$DN@
	call	??$?6U?$char_traits@D@std@@@std@@YAAEAV?$basic_ostream@DU?$char_traits@D@std@@@0@AEAV10@PEBD@Z ; std::operator<<<std::char_traits<char> >
	lea	rdx, OFFSET FLAT:?dec@std@@YAAEAVios_base@1@AEAV21@@Z ; std::dec
	mov	rcx, rax
	call	QWORD PTR __imp_??6?$basic_ostream@DU?$char_traits@D@std@@@std@@QEAAAEAV01@P6AAEAVios_base@1@AEAV21@@Z@Z
	mov	rcx, rax
	mov	rdx, rbx
	call	QWORD PTR __imp_??6?$basic_ostream@DU?$char_traits@D@std@@@std@@QEAAAEAV01@_K@Z
	mov	rcx, rax
	lea	rdx, OFFSET FLAT:??_C@_0BB@CPGFOPLP@?5AllocationType?$DN@
	call	??$?6U?$char_traits@D@std@@@std@@YAAEAV?$basic_ostream@DU?$char_traits@D@std@@@0@AEAV10@PEBD@Z ; std::operator<<<std::char_traits<char> >
	lea	rdx, OFFSET FLAT:?hex@std@@YAAEAVios_base@1@AEAV21@@Z ; std::hex
	mov	rcx, rax
	call	QWORD PTR __imp_??6?$basic_ostream@DU?$char_traits@D@std@@@std@@QEAAAEAV01@P6AAEAVios_base@1@AEAV21@@Z@Z
	mov	rcx, rax
	mov	edx, edi
	call	QWORD PTR __imp_??6?$basic_ostream@DU?$char_traits@D@std@@@std@@QEAAAEAV01@K@Z
	mov	rcx, rax
	lea	rdx, OFFSET FLAT:??_C@_0N@DJEDGFBP@?5Protection?$DN@
	call	??$?6U?$char_traits@D@std@@@std@@YAAEAV?$basic_ostream@DU?$char_traits@D@std@@@0@AEAV10@PEBD@Z ; std::operator<<<std::char_traits<char> >
	lea	rdx, OFFSET FLAT:?hex@std@@YAAEAVios_base@1@AEAV21@@Z ; std::hex
	mov	rcx, rax
	call	QWORD PTR __imp_??6?$basic_ostream@DU?$char_traits@D@std@@@std@@QEAAAEAV01@P6AAEAVios_base@1@AEAV21@@Z@Z
	mov	rcx, rax
	mov	edx, ebp
	call	QWORD PTR __imp_??6?$basic_ostream@DU?$char_traits@D@std@@@std@@QEAAAEAV01@K@Z
	mov	rcx, rax
	lea	rdx, OFFSET FLAT:??$endl@DU?$char_traits@D@std@@@std@@YAAEAV?$basic_ostream@DU?$char_traits@D@std@@@0@AEAV10@@Z ; std::endl<char,std::char_traits<char> >
	call	QWORD PTR __imp_??6?$basic_ostream@DU?$char_traits@D@std@@@std@@QEAAAEAV01@P6AAEAV01@AEAV01@@Z@Z
; Line 87
	mov	rbx, QWORD PTR [rsp+48]
	mov	rax, rsi
	mov	rsi, QWORD PTR [rsp+64]
	mov	rbp, QWORD PTR [rsp+56]
	add	rsp, 32					; 00000020H
	pop	rdi
	ret	0
?HookedVirtualAlloc@@YAPEAXPEAX_KKK@Z ENDP		; HookedVirtualAlloc
_TEXT	ENDS
; Function compile flags: /Ogtpy
;	COMDAT ?HookedVirtualAllocEx@@YAPEAXPEAX0_KKK@Z
_TEXT	SEGMENT
hProcess$ = 64
lpAddress$ = 72
dwSize$ = 80
flAllocationType$ = 88
flProtect$ = 96
?HookedVirtualAllocEx@@YAPEAXPEAX0_KKK@Z PROC		; HookedVirtualAllocEx, COMDAT
; File C:\Users\hugol\source\repos\ConsoleApplication3\ConsoleApplication3\ConsoleApplication3.cpp
; Line 89
	mov	QWORD PTR [rsp+8], rbx
	mov	QWORD PTR [rsp+16], rbp
	mov	QWORD PTR [rsp+24], rsi
	push	rdi
	sub	rsp, 48					; 00000030H
; Line 90
	mov	rax, QWORD PTR ?originalVirtualAllocEx@@3P6APEAXPEAX0_KKK@ZEA ; originalVirtualAllocEx
	mov	edi, r9d
	mov	esi, DWORD PTR flProtect$[rsp]
	mov	rbx, r8
	mov	DWORD PTR [rsp+32], esi
	call	rax
; Line 92
	mov	rcx, QWORD PTR __imp_?cout@std@@3V?$basic_ostream@DU?$char_traits@D@std@@@1@A
	lea	rdx, OFFSET FLAT:??_C@_0BP@FPGHOMD@HookedVirtualAllocEx?3?5Address?$DN@
	mov	rbp, rax
	call	??$?6U?$char_traits@D@std@@@std@@YAAEAV?$basic_ostream@DU?$char_traits@D@std@@@0@AEAV10@PEBD@Z ; std::operator<<<std::char_traits<char> >
	mov	rdx, rbp
	mov	rcx, rax
	call	QWORD PTR __imp_??6?$basic_ostream@DU?$char_traits@D@std@@@std@@QEAAAEAV01@PEBX@Z
	mov	rcx, rax
	lea	rdx, OFFSET FLAT:??_C@_06JDGAHHPF@?5Size?$DN@
	call	??$?6U?$char_traits@D@std@@@std@@YAAEAV?$basic_ostream@DU?$char_traits@D@std@@@0@AEAV10@PEBD@Z ; std::operator<<<std::char_traits<char> >
	lea	rdx, OFFSET FLAT:?dec@std@@YAAEAVios_base@1@AEAV21@@Z ; std::dec
	mov	rcx, rax
	call	QWORD PTR __imp_??6?$basic_ostream@DU?$char_traits@D@std@@@std@@QEAAAEAV01@P6AAEAVios_base@1@AEAV21@@Z@Z
	mov	rcx, rax
	mov	rdx, rbx
	call	QWORD PTR __imp_??6?$basic_ostream@DU?$char_traits@D@std@@@std@@QEAAAEAV01@_K@Z
	mov	rcx, rax
	lea	rdx, OFFSET FLAT:??_C@_0BB@CPGFOPLP@?5AllocationType?$DN@
	call	??$?6U?$char_traits@D@std@@@std@@YAAEAV?$basic_ostream@DU?$char_traits@D@std@@@0@AEAV10@PEBD@Z ; std::operator<<<std::char_traits<char> >
	lea	rdx, OFFSET FLAT:?hex@std@@YAAEAVios_base@1@AEAV21@@Z ; std::hex
	mov	rcx, rax
	call	QWORD PTR __imp_??6?$basic_ostream@DU?$char_traits@D@std@@@std@@QEAAAEAV01@P6AAEAVios_base@1@AEAV21@@Z@Z
	mov	rcx, rax
	mov	edx, edi
	call	QWORD PTR __imp_??6?$basic_ostream@DU?$char_traits@D@std@@@std@@QEAAAEAV01@K@Z
	mov	rcx, rax
	lea	rdx, OFFSET FLAT:??_C@_0N@DJEDGFBP@?5Protection?$DN@
	call	??$?6U?$char_traits@D@std@@@std@@YAAEAV?$basic_ostream@DU?$char_traits@D@std@@@0@AEAV10@PEBD@Z ; std::operator<<<std::char_traits<char> >
	lea	rdx, OFFSET FLAT:?hex@std@@YAAEAVios_base@1@AEAV21@@Z ; std::hex
	mov	rcx, rax
	call	QWORD PTR __imp_??6?$basic_ostream@DU?$char_traits@D@std@@@std@@QEAAAEAV01@P6AAEAVios_base@1@AEAV21@@Z@Z
	mov	rcx, rax
	mov	edx, esi
	call	QWORD PTR __imp_??6?$basic_ostream@DU?$char_traits@D@std@@@std@@QEAAAEAV01@K@Z
	mov	rcx, rax
	lea	rdx, OFFSET FLAT:??$endl@DU?$char_traits@D@std@@@std@@YAAEAV?$basic_ostream@DU?$char_traits@D@std@@@0@AEAV10@@Z ; std::endl<char,std::char_traits<char> >
	call	QWORD PTR __imp_??6?$basic_ostream@DU?$char_traits@D@std@@@std@@QEAAAEAV01@P6AAEAV01@AEAV01@@Z@Z
; Line 99
	mov	rbx, QWORD PTR [rsp+64]
	mov	rax, rbp
	mov	rbp, QWORD PTR [rsp+72]
	mov	rsi, QWORD PTR [rsp+80]
	add	rsp, 48					; 00000030H
	pop	rdi
	ret	0
?HookedVirtualAllocEx@@YAPEAXPEAX0_KKK@Z ENDP		; HookedVirtualAllocEx
_TEXT	ENDS
; Function compile flags: /Ogtpy
;	COMDAT ?HookedWriteProcessMemory@@YAHPEAX0PEBX_KPEA_K@Z
_TEXT	SEGMENT
$T1 = 48
result$ = 48
$T10 = 56
e$30 = 88
$T7 = 96
hexData$31 = 128
__$ArrayPad$ = 384
hProcess$ = 464
lpBaseAddress$ = 472
lpBuffer$ = 480
nSize$ = 488
lpNumberOfBytesWritten$ = 496
?HookedWriteProcessMemory@@YAHPEAX0PEBX_KPEA_K@Z PROC	; HookedWriteProcessMemory, COMDAT
; File C:\Users\hugol\source\repos\ConsoleApplication3\ConsoleApplication3\ConsoleApplication3.cpp
; Line 101
	push	rbx
	push	rsi
	push	rdi
	push	r12
	push	r13
	push	r14
	push	r15
	sub	rsp, 400				; 00000190H
	mov	rax, QWORD PTR __security_cookie
	xor	rax, rsp
	mov	QWORD PTR __$ArrayPad$[rsp], rax
	mov	rdi, r9
	mov	r14, r8
	mov	rsi, rdx
	mov	rbx, QWORD PTR lpNumberOfBytesWritten$[rsp]
	xor	r12d, r12d
	mov	DWORD PTR $T1[rsp], r12d
; Line 105
	test	rbx, rbx
	jne	SHORT $LN6@HookedWrit
; Line 106
	lea	rdx, OFFSET FLAT:??_C@_0DN@NLABAAOK@HookedWriteProcessMemory?3?5lpNum@
	mov	rcx, QWORD PTR __imp_?cerr@std@@3V?$basic_ostream@DU?$char_traits@D@std@@@1@A
	call	??$?6U?$char_traits@D@std@@@std@@YAAEAV?$basic_ostream@DU?$char_traits@D@std@@@0@AEAV10@PEBD@Z ; std::operator<<<std::char_traits<char> >
	lea	rdx, OFFSET FLAT:??$endl@DU?$char_traits@D@std@@@std@@YAAEAV?$basic_ostream@DU?$char_traits@D@std@@@0@AEAV10@@Z ; std::endl<char,std::char_traits<char> >
	mov	rcx, rax
	call	QWORD PTR __imp_??6?$basic_ostream@DU?$char_traits@D@std@@@std@@QEAAAEAV01@P6AAEAV01@AEAV01@@Z@Z
; Line 107
	xor	eax, eax
	jmp	$LN1@HookedWrit
$LN6@HookedWrit:
; Line 110
	mov	rax, QWORD PTR ?originalWriteProcessMemory@@3P6AHPEAX0PEBX_KPEA_K@ZEA ; originalWriteProcessMemory
	mov	QWORD PTR [rsp+32], rbx
	call	rax
	mov	r15d, eax
; Line 112
	lea	rdx, OFFSET FLAT:??_C@_0CD@JLIEEAJN@HookedWriteProcessMemory?3?5Addre@
	mov	rcx, QWORD PTR __imp_?cout@std@@3V?$basic_ostream@DU?$char_traits@D@std@@@1@A
	call	??$?6U?$char_traits@D@std@@@std@@YAAEAV?$basic_ostream@DU?$char_traits@D@std@@@0@AEAV10@PEBD@Z ; std::operator<<<std::char_traits<char> >
	mov	rdx, rsi
	mov	rcx, rax
	call	QWORD PTR __imp_??6?$basic_ostream@DU?$char_traits@D@std@@@std@@QEAAAEAV01@PEBX@Z
	lea	rdx, OFFSET FLAT:??_C@_06JDGAHHPF@?5Size?$DN@
	mov	rcx, rax
	call	??$?6U?$char_traits@D@std@@@std@@YAAEAV?$basic_ostream@DU?$char_traits@D@std@@@0@AEAV10@PEBD@Z ; std::operator<<<std::char_traits<char> >
	lea	rdx, OFFSET FLAT:?dec@std@@YAAEAVios_base@1@AEAV21@@Z ; std::dec
	mov	rcx, rax
	call	QWORD PTR __imp_??6?$basic_ostream@DU?$char_traits@D@std@@@std@@QEAAAEAV01@P6AAEAVios_base@1@AEAV21@@Z@Z
	mov	rdx, rdi
	mov	rcx, rax
	call	QWORD PTR __imp_??6?$basic_ostream@DU?$char_traits@D@std@@@std@@QEAAAEAV01@_K@Z
	lea	rdx, OFFSET FLAT:??_C@_0P@HIDOCKMF@?5BytesWritten?$DN@
	mov	rcx, rax
	call	??$?6U?$char_traits@D@std@@@std@@YAAEAV?$basic_ostream@DU?$char_traits@D@std@@@0@AEAV10@PEBD@Z ; std::operator<<<std::char_traits<char> >
	lea	rdx, OFFSET FLAT:?dec@std@@YAAEAVios_base@1@AEAV21@@Z ; std::dec
	mov	rcx, rax
	call	QWORD PTR __imp_??6?$basic_ostream@DU?$char_traits@D@std@@@std@@QEAAAEAV01@P6AAEAVios_base@1@AEAV21@@Z@Z
	mov	rdx, QWORD PTR [rbx]
	mov	rcx, rax
	call	QWORD PTR __imp_??6?$basic_ostream@DU?$char_traits@D@std@@@std@@QEAAAEAV01@_K@Z
	lea	rdx, OFFSET FLAT:??$endl@DU?$char_traits@D@std@@@std@@YAAEAV?$basic_ostream@DU?$char_traits@D@std@@@0@AEAV10@@Z ; std::endl<char,std::char_traits<char> >
	mov	rcx, rax
	call	QWORD PTR __imp_??6?$basic_ostream@DU?$char_traits@D@std@@@std@@QEAAAEAV01@P6AAEAV01@AEAV01@@Z@Z
; Line 118
	test	rdi, rdi
	je	$LN155@HookedWrit
	xor	edx, edx
	mov	r8d, 248				; 000000f8H
	lea	rcx, QWORD PTR hexData$31[rsp]
	call	memset
; File C:\Program Files\Microsoft Visual Studio\2022\Community\VC\Tools\MSVC\14.38.33130\include\sstream
; Line 804
	lea	rax, OFFSET FLAT:??_8?$basic_stringstream@DU?$char_traits@D@std@@V?$allocator@D@2@@std@@7B?$basic_istream@DU?$char_traits@D@std@@@1@@
	mov	QWORD PTR hexData$31[rsp], rax
	lea	rax, OFFSET FLAT:??_8?$basic_stringstream@DU?$char_traits@D@std@@V?$allocator@D@2@@std@@7B?$basic_ostream@DU?$char_traits@D@std@@@1@@
	mov	QWORD PTR hexData$31[rsp+16], rax
	lea	rcx, QWORD PTR hexData$31[rsp+152]
	call	QWORD PTR __imp_??0?$basic_ios@DU?$char_traits@D@std@@@std@@IEAA@XZ
	npad	1
	mov	esi, 1
	mov	DWORD PTR $T1[rsp], esi
	xor	r8d, r8d
	lea	rdx, QWORD PTR hexData$31[rsp+24]
	lea	rcx, QWORD PTR hexData$31[rsp]
	call	QWORD PTR __imp_??0?$basic_iostream@DU?$char_traits@D@std@@@std@@QEAA@PEAV?$basic_streambuf@DU?$char_traits@D@std@@@1@@Z
	npad	1
	mov	rax, QWORD PTR hexData$31[rsp]
	movsxd	rcx, DWORD PTR [rax+4]
	lea	r13, OFFSET FLAT:??_7?$basic_stringstream@DU?$char_traits@D@std@@V?$allocator@D@2@@std@@6B@
	mov	QWORD PTR hexData$31[rsp+rcx], r13
	mov	rax, QWORD PTR hexData$31[rsp]
	movsxd	rcx, DWORD PTR [rax+4]
	lea	edx, DWORD PTR [rcx-152]
	mov	DWORD PTR hexData$31[rsp+rcx-4], edx
; Line 36
	lea	rcx, QWORD PTR hexData$31[rsp+24]
	call	QWORD PTR __imp_??0?$basic_streambuf@DU?$char_traits@D@std@@@std@@IEAA@XZ
	lea	rax, OFFSET FLAT:??_7?$basic_stringbuf@DU?$char_traits@D@std@@V?$allocator@D@2@@std@@6B@
	mov	QWORD PTR hexData$31[rsp+24], rax
	mov	QWORD PTR hexData$31[rsp+128], r12
	mov	DWORD PTR hexData$31[rsp+136], r12d
; File C:\Users\hugol\source\repos\ConsoleApplication3\ConsoleApplication3\ConsoleApplication3.cpp
; Line 120
	lea	rdx, OFFSET FLAT:?hex@std@@YAAEAVios_base@1@AEAV21@@Z ; std::hex
	lea	rcx, QWORD PTR hexData$31[rsp+16]
	call	QWORD PTR __imp_??6?$basic_ostream@DU?$char_traits@D@std@@@std@@QEAAAEAV01@P6AAEAVios_base@1@AEAV21@@Z@Z
; File C:\Program Files\Microsoft Visual Studio\2022\Community\VC\Tools\MSVC\14.38.33130\include\iomanip
; Line 32
	mov	rcx, QWORD PTR [rax]
	movsxd	rdx, DWORD PTR [rcx+4]
; File C:\Program Files\Microsoft Visual Studio\2022\Community\VC\Tools\MSVC\14.38.33130\include\ios
; Line 104
	mov	BYTE PTR [rdx+rax+88], 48		; 00000030H
; File C:\Users\hugol\source\repos\ConsoleApplication3\ConsoleApplication3\ConsoleApplication3.cpp
; Line 121
	mov	rbx, r12
$LL4@HookedWrit:
	cmp	rbx, rdi
	jae	SHORT $LN3@HookedWrit
; Line 122
	mov	edx, 2
	lea	rcx, QWORD PTR $T7[rsp]
	call	QWORD PTR __imp_?setw@std@@YA?AU?$_Smanip@_J@1@_J@Z
	mov	rdx, rax
; File C:\Program Files\Microsoft Visual Studio\2022\Community\VC\Tools\MSVC\14.38.33130\include\iomanip
; Line 386
	mov	r8, QWORD PTR [rax]
	mov	rax, QWORD PTR hexData$31[rsp+16]
	movsxd	rcx, DWORD PTR [rax+4]
	lea	rax, QWORD PTR hexData$31[rsp+16]
	add	rcx, rax
	mov	rdx, QWORD PTR [rdx+8]
	call	r8
; File C:\Users\hugol\source\repos\ConsoleApplication3\ConsoleApplication3\ConsoleApplication3.cpp
; Line 122
	movzx	edx, BYTE PTR [r14+rbx]
	lea	rcx, QWORD PTR hexData$31[rsp+16]
	call	QWORD PTR __imp_??6?$basic_ostream@DU?$char_traits@D@std@@@std@@QEAAAEAV01@H@Z
	lea	rdx, OFFSET FLAT:??_C@_01CLKCMJKC@?5@
	mov	rcx, rax
	call	??$?6U?$char_traits@D@std@@@std@@YAAEAV?$basic_ostream@DU?$char_traits@D@std@@@0@AEAV10@PEBD@Z ; std::operator<<<std::char_traits<char> >
; Line 121
	inc	rbx
	jmp	SHORT $LL4@HookedWrit
$LN3@HookedWrit:
; Line 124
	lea	rdx, OFFSET FLAT:??_C@_08CCCNBELM@?5?5Data?3?5@
	mov	rcx, QWORD PTR __imp_?cout@std@@3V?$basic_ostream@DU?$char_traits@D@std@@@1@A
	call	??$?6U?$char_traits@D@std@@@std@@YAAEAV?$basic_ostream@DU?$char_traits@D@std@@@0@AEAV10@PEBD@Z ; std::operator<<<std::char_traits<char> >
	mov	rdi, rax
	xorps	xmm0, xmm0
; File C:\Program Files\Microsoft Visual Studio\2022\Community\VC\Tools\MSVC\14.38.33130\include\xstring
; Line 2284
	movups	XMMWORD PTR $T10[rsp], xmm0
; Line 4829
	mov	QWORD PTR $T10[rsp+16], r12
; Line 4830
	mov	QWORD PTR $T10[rsp+24], 15
; Line 4834
	mov	BYTE PTR $T10[rsp], 0
; File C:\Program Files\Microsoft Visual Studio\2022\Community\VC\Tools\MSVC\14.38.33130\include\sstream
; Line 160
	or	esi, 4
	mov	DWORD PTR $T1[rsp], esi
; Line 132
	mov	ecx, DWORD PTR hexData$31[rsp+136]
	mov	eax, ecx
	and	al, 34					; 00000022H
; Line 133
	cmp	al, 2
	je	SHORT $LN61@HookedWrit
; File C:\Program Files\Microsoft Visual Studio\2022\Community\VC\Tools\MSVC\14.38.33130\include\streambuf
; Line 192
	mov	rax, QWORD PTR hexData$31[rsp+88]
	mov	rbx, QWORD PTR [rax]
; File C:\Program Files\Microsoft Visual Studio\2022\Community\VC\Tools\MSVC\14.38.33130\include\sstream
; Line 133
	test	rbx, rbx
	je	SHORT $LN61@HookedWrit
; File C:\Program Files\Microsoft Visual Studio\2022\Community\VC\Tools\MSVC\14.38.33130\include\streambuf
; Line 188
	mov	rax, QWORD PTR hexData$31[rsp+56]
	mov	r9, QWORD PTR [rax]
; File C:\Program Files\Microsoft Visual Studio\2022\Community\VC\Tools\MSVC\14.38.33130\include\utility
; Line 77
	cmp	rbx, QWORD PTR hexData$31[rsp+128]
; File C:\Program Files\Microsoft Visual Studio\2022\Community\VC\Tools\MSVC\14.38.33130\include\sstream
; Line 137
	cmovb	rbx, QWORD PTR hexData$31[rsp+128]
; Line 138
	jmp	SHORT $LN178@HookedWrit
$LN61@HookedWrit:
; Line 139
	test	cl, 4
	jne	SHORT $LN89@HookedWrit
; File C:\Program Files\Microsoft Visual Studio\2022\Community\VC\Tools\MSVC\14.38.33130\include\streambuf
; Line 184
	mov	rax, QWORD PTR hexData$31[rsp+80]
	mov	rcx, QWORD PTR [rax]
; File C:\Program Files\Microsoft Visual Studio\2022\Community\VC\Tools\MSVC\14.38.33130\include\sstream
; Line 139
	test	rcx, rcx
	je	SHORT $LN89@HookedWrit
; File C:\Program Files\Microsoft Visual Studio\2022\Community\VC\Tools\MSVC\14.38.33130\include\streambuf
; Line 180
	mov	rax, QWORD PTR hexData$31[rsp+48]
	mov	r9, QWORD PTR [rax]
; Line 196
	mov	rax, QWORD PTR hexData$31[rsp+104]
	movsxd	rbx, DWORD PTR [rax]
	add	rbx, rcx
$LN178@HookedWrit:
; File C:\Program Files\Microsoft Visual Studio\2022\Community\VC\Tools\MSVC\14.38.33130\include\sstream
; Line 157
	mov	rax, r9
	sub	rbx, r9
	test	rax, rax
	je	SHORT $LN89@HookedWrit
; File C:\Program Files\Microsoft Visual Studio\2022\Community\VC\Tools\MSVC\14.38.33130\include\xstring
; Line 3373
	lea	rcx, QWORD PTR $T10[rsp]
	cmp	rbx, 15
	ja	SHORT $LN90@HookedWrit
; Line 3376
	mov	QWORD PTR $T10[rsp+16], rbx
; Line 117
	mov	r8, rbx
	mov	rdx, r9
	call	memmove
; Line 3378
	mov	BYTE PTR $T10[rsp+rbx], 0
; Line 3380
	jmp	SHORT $LN89@HookedWrit
$LN90@HookedWrit:
; Line 3383
	mov	rdx, rbx
	call	??$_Reallocate_for@V<lambda_1>@?1??assign@?$basic_string@DU?$char_traits@D@std@@V?$allocator@D@2@@std@@QEAAAEAV34@QEBD_K@Z@PEBD@?$basic_string@DU?$char_traits@D@std@@V?$allocator@D@2@@std@@AEAAAEAV01@_KV<lambda_1>@?1??assign@01@QEAAAEAV01@QEBD0@Z@PEBD@Z ; std::basic_string<char,std::char_traits<char>,std::allocator<char> >::_Reallocate_for<`std::basic_string<char,std::char_traits<char>,std::allocator<char> >::assign'::`2'::<lambda_1>,char const *>
	npad	1
$LN89@HookedWrit:
; Line 2235
	lea	rdx, QWORD PTR $T10[rsp]
; Line 2236
	cmp	QWORD PTR $T10[rsp+24], 15
	cmova	rdx, QWORD PTR $T10[rsp]
; Line 5195
	mov	r8, QWORD PTR $T10[rsp+16]
	mov	rcx, rdi
	call	??$_Insert_string@DU?$char_traits@D@std@@_K@std@@YAAEAV?$basic_ostream@DU?$char_traits@D@std@@@0@AEAV10@QEBD_K@Z ; std::_Insert_string<char,std::char_traits<char>,unsigned __int64>
; File C:\Users\hugol\source\repos\ConsoleApplication3\ConsoleApplication3\ConsoleApplication3.cpp
; Line 124
	lea	rdx, OFFSET FLAT:??$endl@DU?$char_traits@D@std@@@std@@YAAEAV?$basic_ostream@DU?$char_traits@D@std@@@0@AEAV10@@Z ; std::endl<char,std::char_traits<char> >
	mov	rcx, rax
	call	QWORD PTR __imp_??6?$basic_ostream@DU?$char_traits@D@std@@@std@@QEAAAEAV01@P6AAEAV01@AEAV01@@Z@Z
	npad	1
; File C:\Program Files\Microsoft Visual Studio\2022\Community\VC\Tools\MSVC\14.38.33130\include\xstring
; Line 4840
	mov	rdx, QWORD PTR $T10[rsp+24]
	cmp	rdx, 15
	jbe	SHORT $LN135@HookedWrit
; Line 2630
	inc	rdx
; File C:\Program Files\Microsoft Visual Studio\2022\Community\VC\Tools\MSVC\14.38.33130\include\xmemory
; Line 973
	mov	rcx, QWORD PTR $T10[rsp]
	mov	rax, rcx
; Line 260
	cmp	rdx, 4096				; 00001000H
	jb	SHORT $LN147@HookedWrit
; Line 156
	add	rdx, 39					; 00000027H
; Line 159
	mov	rcx, QWORD PTR [rcx-8]
	sub	rax, rcx
; Line 173
	add	rax, -8
	cmp	rax, 31
	jbe	SHORT $LN147@HookedWrit
	call	QWORD PTR __imp__invalid_parameter_noinfo_noreturn
	int	3
$LN147@HookedWrit:
; Line 264
	call	??3@YAXPEAX_K@Z				; operator delete
	npad	1
$LN135@HookedWrit:
; File C:\Program Files\Microsoft Visual Studio\2022\Community\VC\Tools\MSVC\14.38.33130\include\sstream
; Line 859
	mov	rax, QWORD PTR hexData$31[rsp]
	movsxd	rcx, DWORD PTR [rax+4]
	mov	QWORD PTR hexData$31[rsp+rcx], r13
	mov	rax, QWORD PTR hexData$31[rsp]
	movsxd	rcx, DWORD PTR [rax+4]
	lea	edx, DWORD PTR [rcx-152]
	mov	DWORD PTR hexData$31[rsp+rcx-4], edx
	lea	rcx, QWORD PTR hexData$31[rsp+24]
	call	??1?$basic_stringbuf@DU?$char_traits@D@std@@V?$allocator@D@2@@std@@UEAA@XZ ; std::basic_stringbuf<char,std::char_traits<char>,std::allocator<char> >::~basic_stringbuf<char,std::char_traits<char>,std::allocator<char> >
	lea	rcx, QWORD PTR hexData$31[rsp+32]
	call	QWORD PTR __imp_??1?$basic_iostream@DU?$char_traits@D@std@@@std@@UEAA@XZ
	lea	rcx, QWORD PTR hexData$31[rsp+152]
	call	QWORD PTR __imp_??1?$basic_ios@DU?$char_traits@D@std@@@std@@UEAA@XZ
	npad	1
$LN155@HookedWrit:
; File C:\Users\hugol\source\repos\ConsoleApplication3\ConsoleApplication3\ConsoleApplication3.cpp
	jmp	SHORT $LN13@HookedWrit
$LN14@HookedWrit:
; File C:\Program Files\Microsoft Visual Studio\2022\Community\VC\Tools\MSVC\14.38.33130\include\sstream
	mov	r15d, DWORD PTR result$[rsp]
$LN13@HookedWrit:
; File C:\Users\hugol\source\repos\ConsoleApplication3\ConsoleApplication3\ConsoleApplication3.cpp
; Line 132
	mov	eax, r15d
$LN1@HookedWrit:
; Line 133
	mov	rcx, QWORD PTR __$ArrayPad$[rsp]
	xor	rcx, rsp
	call	__security_check_cookie
	add	rsp, 400				; 00000190H
	pop	r15
	pop	r14
	pop	r13
	pop	r12
	pop	rdi
	pop	rsi
	pop	rbx
	ret	0
	int	3
$LN177@HookedWrit:
?HookedWriteProcessMemory@@YAHPEAX0PEBX_KPEA_K@Z ENDP	; HookedWriteProcessMemory
_TEXT	ENDS
; Function compile flags: /Ogtpy
;	COMDAT text$x
text$x	SEGMENT
$T1 = 48
result$ = 48
$T10 = 56
e$30 = 88
$T7 = 96
hexData$31 = 128
__$ArrayPad$ = 384
hProcess$ = 464
lpBaseAddress$ = 472
lpBuffer$ = 480
nSize$ = 488
lpNumberOfBytesWritten$ = 496
?dtor$2@?0??HookedWriteProcessMemory@@YAHPEAX0PEBX_KPEA_K@Z@4HA PROC ; `HookedWriteProcessMemory'::`1'::dtor$2
	push	rbp
	sub	rsp, 32					; 00000020H
	mov	rbp, rdx
	mov	eax, DWORD PTR $T1[rbp]
	and	eax, 1
	test	eax, eax
	je	SHORT $LN21@dtor$2
	and	DWORD PTR $T1[rbp], -2
	lea	rcx, QWORD PTR hexData$31[rbp]
	add	rcx, 152				; 00000098H
	call	QWORD PTR __imp_??1?$basic_ios@DU?$char_traits@D@std@@@std@@UEAA@XZ
$LN21@dtor$2:
	add	rsp, 32					; 00000020H
	pop	rbp
	ret	0
?dtor$2@?0??HookedWriteProcessMemory@@YAHPEAX0PEBX_KPEA_K@Z@4HA ENDP ; `HookedWriteProcessMemory'::`1'::dtor$2
text$x	ENDS
; Function compile flags: /Ogtpy
;	COMDAT text$x
text$x	SEGMENT
$T1 = 48
result$ = 48
$T10 = 56
e$30 = 88
$T7 = 96
hexData$31 = 128
__$ArrayPad$ = 384
hProcess$ = 464
lpBaseAddress$ = 472
lpBuffer$ = 480
nSize$ = 488
lpNumberOfBytesWritten$ = 496
?dtor$3@?0??HookedWriteProcessMemory@@YAHPEAX0PEBX_KPEA_K@Z@4HA PROC ; `HookedWriteProcessMemory'::`1'::dtor$3
	lea	rcx, QWORD PTR hexData$31[rdx]
	add	rcx, 32					; 00000020H
	rex_jmp	QWORD PTR __imp_??1?$basic_iostream@DU?$char_traits@D@std@@@std@@UEAA@XZ
?dtor$3@?0??HookedWriteProcessMemory@@YAHPEAX0PEBX_KPEA_K@Z@4HA ENDP ; `HookedWriteProcessMemory'::`1'::dtor$3
text$x	ENDS
; Function compile flags: /Ogtpy
;	COMDAT text$x
text$x	SEGMENT
$T1 = 48
result$ = 48
$T10 = 56
e$30 = 88
$T7 = 96
hexData$31 = 128
__$ArrayPad$ = 384
hProcess$ = 464
lpBaseAddress$ = 472
lpBuffer$ = 480
nSize$ = 488
lpNumberOfBytesWritten$ = 496
?dtor$0@?0??HookedWriteProcessMemory@@YAHPEAX0PEBX_KPEA_K@Z@4HA PROC ; `HookedWriteProcessMemory'::`1'::dtor$0
	lea	rcx, QWORD PTR hexData$31[rdx]
	jmp	??_D?$basic_stringstream@DU?$char_traits@D@std@@V?$allocator@D@2@@std@@QEAAXXZ
?dtor$0@?0??HookedWriteProcessMemory@@YAHPEAX0PEBX_KPEA_K@Z@4HA ENDP ; `HookedWriteProcessMemory'::`1'::dtor$0
text$x	ENDS
; Function compile flags: /Ogtpy
;	COMDAT text$x
text$x	SEGMENT
$T1 = 48
result$ = 48
$T10 = 56
e$30 = 88
$T7 = 96
hexData$31 = 128
__$ArrayPad$ = 384
hProcess$ = 464
lpBaseAddress$ = 472
lpBuffer$ = 480
nSize$ = 488
lpNumberOfBytesWritten$ = 496
?dtor$8@?0??HookedWriteProcessMemory@@YAHPEAX0PEBX_KPEA_K@Z@4HA PROC ; `HookedWriteProcessMemory'::`1'::dtor$8
	push	rbp
	sub	rsp, 32					; 00000020H
	mov	rbp, rdx
	mov	eax, DWORD PTR $T1[rbp]
	and	eax, 4
	test	eax, eax
	je	SHORT $LN46@dtor$8
	and	DWORD PTR $T1[rbp], -5
	lea	rcx, QWORD PTR $T10[rbp]
	call	??1?$basic_string@DU?$char_traits@D@std@@V?$allocator@D@2@@std@@QEAA@XZ ; std::basic_string<char,std::char_traits<char>,std::allocator<char> >::~basic_string<char,std::char_traits<char>,std::allocator<char> >
$LN46@dtor$8:
	add	rsp, 32					; 00000020H
	pop	rbp
	ret	0
?dtor$8@?0??HookedWriteProcessMemory@@YAHPEAX0PEBX_KPEA_K@Z@4HA ENDP ; `HookedWriteProcessMemory'::`1'::dtor$8
text$x	ENDS
; Function compile flags: /Ogtpy
;	COMDAT text$x
text$x	SEGMENT
$T1 = 48
result$ = 48
$T10 = 56
e$30 = 88
$T7 = 96
hexData$31 = 128
__$ArrayPad$ = 384
hProcess$ = 464
lpBaseAddress$ = 472
lpBuffer$ = 480
nSize$ = 488
lpNumberOfBytesWritten$ = 496
?dtor$1@?0??HookedWriteProcessMemory@@YAHPEAX0PEBX_KPEA_K@Z@4HA PROC ; `HookedWriteProcessMemory'::`1'::dtor$1
	lea	rcx, QWORD PTR $T10[rdx]
	jmp	??1?$basic_string@DU?$char_traits@D@std@@V?$allocator@D@2@@std@@QEAA@XZ ; std::basic_string<char,std::char_traits<char>,std::allocator<char> >::~basic_string<char,std::char_traits<char>,std::allocator<char> >
?dtor$1@?0??HookedWriteProcessMemory@@YAHPEAX0PEBX_KPEA_K@Z@4HA ENDP ; `HookedWriteProcessMemory'::`1'::dtor$1
text$x	ENDS
; Function compile flags: /Ogtpy
;	COMDAT text$x
text$x	SEGMENT
$T1 = 48
result$ = 48
$T10 = 56
e$30 = 88
$T7 = 96
hexData$31 = 128
__$ArrayPad$ = 384
hProcess$ = 464
lpBaseAddress$ = 472
lpBuffer$ = 480
nSize$ = 488
lpNumberOfBytesWritten$ = 496
?catch$21@?0??HookedWriteProcessMemory@@YAHPEAX0PEBX_KPEA_K@Z@4HA PROC ; `HookedWriteProcessMemory'::`1'::catch$21
; Line 127
	mov	QWORD PTR [rsp+16], rdx
	push	rbx
	push	rbp
	sub	rsp, 56					; 00000038H
	mov	rbp, rdx
__catch$?HookedWriteProcessMemory@@YAHPEAX0PEBX_KPEA_K@Z$0:
; Line 128
	lea	rdx, OFFSET FLAT:??_C@_0CI@NGGHBEGF@Exception?5in?5HookedWriteProcess@
	mov	rcx, QWORD PTR __imp_?cerr@std@@3V?$basic_ostream@DU?$char_traits@D@std@@@1@A
	call	??$?6U?$char_traits@D@std@@@std@@YAAEAV?$basic_ostream@DU?$char_traits@D@std@@@0@AEAV10@PEBD@Z ; std::operator<<<std::char_traits<char> >
	mov	rbx, rax
	mov	rcx, QWORD PTR e$30[rbp]
	mov	rdx, QWORD PTR [rcx]
	call	QWORD PTR [rdx+8]
	mov	rdx, rax
	mov	rcx, rbx
	call	??$?6U?$char_traits@D@std@@@std@@YAAEAV?$basic_ostream@DU?$char_traits@D@std@@@0@AEAV10@PEBD@Z ; std::operator<<<std::char_traits<char> >
	lea	rdx, OFFSET FLAT:??$endl@DU?$char_traits@D@std@@@std@@YAAEAV?$basic_ostream@DU?$char_traits@D@std@@@0@AEAV10@@Z ; std::endl<char,std::char_traits<char> >
	mov	rcx, rax
	call	QWORD PTR __imp_??6?$basic_ostream@DU?$char_traits@D@std@@@std@@QEAAAEAV01@P6AAEAV01@AEAV01@@Z@Z
; Line 129
	mov	DWORD PTR result$[rbp], 0
; Line 130
	mov	rax, 0
	add	rsp, 56					; 00000038H
	pop	rbp
	pop	rbx
	ret	0
	int	3
?catch$21@?0??HookedWriteProcessMemory@@YAHPEAX0PEBX_KPEA_K@Z@4HA ENDP ; `HookedWriteProcessMemory'::`1'::catch$21
text$x	ENDS
; Function compile flags: /Ogtpy
;	COMDAT ??_D?$basic_stringstream@DU?$char_traits@D@std@@V?$allocator@D@2@@std@@QEAAXXZ
_TEXT	SEGMENT
this$ = 48
??_D?$basic_stringstream@DU?$char_traits@D@std@@V?$allocator@D@2@@std@@QEAAXXZ PROC ; std::basic_stringstream<char,std::char_traits<char>,std::allocator<char> >::`vbase destructor', COMDAT
$LN8:
	push	rbx
	sub	rsp, 32					; 00000020H
; File C:\Program Files\Microsoft Visual Studio\2022\Community\VC\Tools\MSVC\14.38.33130\include\sstream
; Line 859
	mov	rax, QWORD PTR [rcx]
	lea	rbx, QWORD PTR [rcx+152]
	movsxd	rdx, DWORD PTR [rax+4]
	lea	rax, OFFSET FLAT:??_7?$basic_stringstream@DU?$char_traits@D@std@@V?$allocator@D@2@@std@@6B@
	mov	QWORD PTR [rdx+rbx-152], rax
	mov	rax, QWORD PTR [rcx]
	lea	rcx, QWORD PTR [rbx-128]
	movsxd	rdx, DWORD PTR [rax+4]
	lea	r8d, DWORD PTR [rdx-152]
	mov	DWORD PTR [rdx+rbx-156], r8d
	call	??1?$basic_stringbuf@DU?$char_traits@D@std@@V?$allocator@D@2@@std@@UEAA@XZ ; std::basic_stringbuf<char,std::char_traits<char>,std::allocator<char> >::~basic_stringbuf<char,std::char_traits<char>,std::allocator<char> >
	lea	rcx, QWORD PTR [rbx-120]
	call	QWORD PTR __imp_??1?$basic_iostream@DU?$char_traits@D@std@@@std@@UEAA@XZ
	mov	rcx, rbx
	add	rsp, 32					; 00000020H
	pop	rbx
	rex_jmp	QWORD PTR __imp_??1?$basic_ios@DU?$char_traits@D@std@@@std@@UEAA@XZ
??_D?$basic_stringstream@DU?$char_traits@D@std@@V?$allocator@D@2@@std@@QEAAXXZ ENDP ; std::basic_stringstream<char,std::char_traits<char>,std::allocator<char> >::`vbase destructor'
_TEXT	ENDS
; Function compile flags: /Ogtpy
;	COMDAT ?__autoclassinit2@?$basic_stringstream@DU?$char_traits@D@std@@V?$allocator@D@2@@std@@QEAAX_K@Z
_TEXT	SEGMENT
this$ = 8
classSize$dead$ = 16
?__autoclassinit2@?$basic_stringstream@DU?$char_traits@D@std@@V?$allocator@D@2@@std@@QEAAX_K@Z PROC ; std::basic_stringstream<char,std::char_traits<char>,std::allocator<char> >::__autoclassinit2, COMDAT
	xor	edx, edx
	mov	r8d, 248				; 000000f8H
	jmp	memset
?__autoclassinit2@?$basic_stringstream@DU?$char_traits@D@std@@V?$allocator@D@2@@std@@QEAAX_K@Z ENDP ; std::basic_stringstream<char,std::char_traits<char>,std::allocator<char> >::__autoclassinit2
_TEXT	ENDS
; Function compile flags: /Ogtpy
;	COMDAT ?HookedCreateRemoteThread@@YAPEAXPEAXPEAU_SECURITY_ATTRIBUTES@@_KP6AK0@Z0KPEAK@Z
_TEXT	SEGMENT
hProcess$ = 80
lpThreadAttributes$ = 88
dwStackSize$ = 96
lpStartAddress$ = 104
lpParameter$ = 112
dwCreationFlags$ = 120
lpThreadId$ = 128
?HookedCreateRemoteThread@@YAPEAXPEAXPEAU_SECURITY_ATTRIBUTES@@_KP6AK0@Z0KPEAK@Z PROC ; HookedCreateRemoteThread, COMDAT
; File C:\Users\hugol\source\repos\ConsoleApplication3\ConsoleApplication3\ConsoleApplication3.cpp
; Line 135
	mov	QWORD PTR [rsp+8], rbx
	mov	QWORD PTR [rsp+16], rbp
	mov	QWORD PTR [rsp+24], rsi
	push	rdi
	sub	rsp, 64					; 00000040H
; Line 136
	mov	eax, DWORD PTR dwCreationFlags$[rsp]
	mov	rbx, r9
	mov	rsi, QWORD PTR lpThreadId$[rsp]
	mov	rdi, rcx
	mov	r10, QWORD PTR ?originalCreateRemoteThread@@3P6APEAXPEAXPEAU_SECURITY_ATTRIBUTES@@_KP6AK0@Z0KPEAK@ZEA ; originalCreateRemoteThread
	mov	QWORD PTR [rsp+48], rsi
	mov	DWORD PTR [rsp+40], eax
	mov	rax, QWORD PTR lpParameter$[rsp]
	mov	QWORD PTR [rsp+32], rax
	call	r10
; Line 138
	mov	rcx, QWORD PTR __imp_?cout@std@@3V?$basic_ostream@DU?$char_traits@D@std@@@1@A
	lea	rdx, OFFSET FLAT:??_C@_0CD@EHPPGPBO@HookedCreateRemoteThread?3?5Addre@
	mov	rbp, rax
	call	??$?6U?$char_traits@D@std@@@std@@YAAEAV?$basic_ostream@DU?$char_traits@D@std@@@0@AEAV10@PEBD@Z ; std::operator<<<std::char_traits<char> >
	mov	rdx, rbx
	mov	rcx, rax
	call	QWORD PTR __imp_??6?$basic_ostream@DU?$char_traits@D@std@@@std@@QEAAAEAV01@PEBX@Z
	mov	rcx, rax
	lea	rdx, OFFSET FLAT:??_C@_0BA@NOIODOAP@?5ProcessHandle?$DN@
	call	??$?6U?$char_traits@D@std@@@std@@YAAEAV?$basic_ostream@DU?$char_traits@D@std@@@0@AEAV10@PEBD@Z ; std::operator<<<std::char_traits<char> >
	mov	rdx, rdi
	mov	rcx, rax
	call	QWORD PTR __imp_??6?$basic_ostream@DU?$char_traits@D@std@@@std@@QEAAAEAV01@PEBX@Z
	mov	rcx, rax
	lea	rdx, OFFSET FLAT:??_C@_0L@BOGLAAGC@?5ThreadId?$DN@
	call	??$?6U?$char_traits@D@std@@@std@@YAAEAV?$basic_ostream@DU?$char_traits@D@std@@@0@AEAV10@PEBD@Z ; std::operator<<<std::char_traits<char> >
	test	rsi, rsi
	je	SHORT $LN3@HookedCrea
	mov	edx, DWORD PTR [rsi]
	jmp	SHORT $LN4@HookedCrea
$LN3@HookedCrea:
	xor	edx, edx
$LN4@HookedCrea:
	mov	rcx, rax
	call	QWORD PTR __imp_??6?$basic_ostream@DU?$char_traits@D@std@@@std@@QEAAAEAV01@K@Z
	mov	rcx, rax
	lea	rdx, OFFSET FLAT:??$endl@DU?$char_traits@D@std@@@std@@YAAEAV?$basic_ostream@DU?$char_traits@D@std@@@0@AEAV10@@Z ; std::endl<char,std::char_traits<char> >
	call	QWORD PTR __imp_??6?$basic_ostream@DU?$char_traits@D@std@@@std@@QEAAAEAV01@P6AAEAV01@AEAV01@@Z@Z
; Line 144
	mov	rbx, QWORD PTR [rsp+80]
	mov	rax, rbp
